(lp0
(dp1
S'end'
p2
V2013-04-16T00:00:00-0500
p3
sS'Title'
p4
VAnnual Parking Permit Registration
p5
sS'Content'
p6
VRegister online April 10 - July 9 at transport.tamu.edu. There is no advantage to registering earlier in the registration process; however, registrations must be completed by July 9 to be assigned a permit with the first distribution. Registrations completed after the July 9 deadline will be assigned on a first come, first served basis based on the remaining availability.\u000a\u000aSource\u000ahttp://calendar.tamu.edu/?&y=2013&m=04&d=10&eventdatetime_id=15170&
p7
sS'start'
p8
V2013-04-10T00:00:00-0500
p9
sS'link'
p10
Vhttp://calendar.tamu.edu/?&y=2013&m=04&d=10&eventdatetime_id=15170&
p11
sS'location'
p12
ccopy_reg
_reconstructor
p13
(cbs4.element
NavigableString
p14
c__builtin__
unicode
p15
V Texas A&M University
p16
tp17
Rp18
(dp19
S'next_sibling'
p20
NsS'previous_element'
p21
g13
(cbs4.element
Tag
p22
c__builtin__
object
p23
Ntp24
Rp25
(dp26
S'can_be_empty_element'
p27
I00
sg21
g13
(g14
g15
V | 
p28
tp29
Rp30
(dp31
g20
g25
sg21
g13
(g14
g15
V12:00 am
p32
tp33
Rp34
(dp35
g20
Nsg21
g13
(g22
g23
Ntp36
Rp37
(dp38
g27
I00
sg21
g13
(g22
g23
Ntp39
Rp40
(dp41
g27
I00
sg21
g13
(g14
g15
V-
p42
tp43
Rp44
(dp45
g20
g40
sg21
g13
(g14
g15
VAll day
p46
tp47
Rp48
(dp49
g20
Nsg21
g13
(g22
g23
Ntp50
Rp51
(dp52
g27
I00
sg21
g13
(g22
g23
Ntp53
Rp54
(dp55
g27
I00
sg21
g13
(g14
g15
V | 
p56
tp57
Rp58
(dp59
g20
g54
sg21
g13
(g14
g15
VWednesday, April 10th
p60
tp61
Rp62
(dp63
g20
Nsg21
g13
(g22
g23
Ntp64
Rp65
(dp66
g27
I00
sg21
Nsg20
g58
sS'name'
p67
Vsmall
p68
sS'parent'
p69
g13
(cbs4
BeautifulSoup
p70
g23
Ntp71
Rp72
(dp73
g27
I00
sg21
g13
(g14
g15
VRegister online April 10 - July 9 at transport.tamu.edu. There is no advantage to registering earlier in the registration process; however, registrations must be completed by July 9 to be assigned a permit with the first distribution. Registrations completed after the July 9 deadline will be assigned on a first come, first served basis based on the remaining availability.
p74
tp75
Rp76
(dp77
g20
Nsg21
g13
(g22
g23
Ntp78
Rp79
(dp80
g27
I00
sg21
g18
sg20
Nsg67
Vdiv
p81
sg69
g72
sS'namespace'
p82
NsS'prefix'
p83
NsS'previous_sibling'
p84
g25
sS'attrs'
p85
(dp86
Vclass
p87
(lp88
Vsummary
p89
asVrel
p90
Vsummary
p91
ssS'next_element'
p92
g76
sS'parser_class'
p93
g70
sS'hidden'
p94
I00
sS'contents'
p95
(lp96
g76
asbsg84
Nsg92
Nsg69
g79
sbsg20
Nsg83
Nsg85
(dp97
sg95
(lp98
g65
ag58
ag54
ag44
ag40
ag30
ag25
ag79
asS'tagStack'
p99
(lp100
g72
asg93
g70
sg82
Nsg84
NsS'contains_replacement_characters'
p101
I00
sg92
Nsg69
NsS'declared_html_encoding'
p102
NsS'is_xml'
p103
I00
sS'parse_only'
p104
Nsg94
I1
sS'original_encoding'
p105
Nsg67
V[document]
p106
sS'builder'
p107
g13
(cbs4.builder._htmlparser
HTMLParserTreeBuilder
p108
g23
Ntp109
Rp110
(dp111
S'soup'
p112
NsS'parser_args'
p113
((t(dp114
tp115
sbsS'currentTag'
p116
g72
sS'currentData'
p117
(lp118
sS'markup'
p119
Nsbsg82
Nsg83
Nsg84
Nsg85
(dp120
Vclass
p121
(lp122
Vday
p123
asVrel
p124
Vday
p125
ssg92
g62
sg93
g70
sg94
I00
sg95
(lp126
g62
asbsg84
Nsg92
g58
sg69
g65
sbsg84
g65
sg92
g54
sg69
g72
sbsg20
g44
sg67
Vsmall
p127
sg69
g72
sg82
Nsg83
Nsg84
g58
sg85
(dp128
sg92
g51
sg93
g70
sg94
I00
sg95
(lp129
g51
asbsg20
Nsg67
Vabbr
p130
sg69
g54
sg82
Nsg83
Nsg84
Nsg85
(dp131
Vclass
p132
(lp133
Vdtstart
p134
asVrel
p135
Vdtstart
p136
sVtitle
p137
g9
ssg92
g48
sg93
g70
sg94
I00
sg95
(lp138
g48
asbsg84
Nsg92
g44
sg69
g51
sbsg84
g54
sg92
g40
sg69
g72
sbsg20
g30
sg67
Vsmall
p139
sg69
g72
sg82
Nsg83
Nsg84
g44
sg85
(dp140
sg92
g37
sg93
g70
sg94
I00
sg95
(lp141
g37
asbsg20
Nsg67
Vabbr
p142
sg69
g40
sg82
Nsg83
Nsg84
Nsg85
(dp143
Vclass
p144
(lp145
Vdtend
p146
asVrel
p147
Vdtend
p148
sVtitle
p149
g3
ssg92
g34
sg93
g70
sg94
I00
sg95
(lp150
g34
asbsg84
Nsg92
g30
sg69
g37
sbsg84
g40
sg92
g25
sg69
g72
sbsg20
g79
sg67
Vsmall
p151
sg69
g72
sg82
Nsg83
Nsg84
g30
sg85
(dp152
Vclass
p153
(lp154
Vlocation
p155
asVrel
p156
Vlocation
p157
ssg92
g18
sg93
g70
sg94
I00
sg95
(lp158
g18
asbsg84
Nsg92
g79
sg69
g25
sbsa(dp159
g2
V2013-04-16T00:00:00-0500
p160
sg4
VAnnual Parking Permit Registration
p161
sg6
VRegister online April 10 - July 9 at transport.tamu.edu. There is no advantage to registering earlier in the registration process; however, registrations must be completed by July 9 to be assigned a permit with the first distribution. Registrations completed after the July 9 deadline will be assigned on a first come, first served basis based on the remaining availability.\u000a\u000aSource\u000ahttp://calendar.tamu.edu/?&y=2013&m=04&d=10&eventdatetime_id=15170&
p162
sg8
V2013-04-10T00:00:00-0500
p163
sg10
Vhttp://calendar.tamu.edu/?&y=2013&m=04&d=10&eventdatetime_id=15170&
p164
sg12
g13
(g14
g15
V Texas A&M University
p165
tp166
Rp167
(dp168
g20
Nsg21
g13
(g22
g23
Ntp169
Rp170
(dp171
g27
I00
sg21
g13
(g14
g15
V | 
p172
tp173
Rp174
(dp175
g20
g170
sg21
g13
(g14
g15
V12:00 am
p176
tp177
Rp178
(dp179
g20
Nsg21
g13
(g22
g23
Ntp180
Rp181
(dp182
g27
I00
sg21
g13
(g22
g23
Ntp183
Rp184
(dp185
g27
I00
sg21
g13
(g14
g15
g42
tp186
Rp187
(dp188
g20
g184
sg21
g13
(g14
g15
VAll day
p189
tp190
Rp191
(dp192
g20
Nsg21
g13
(g22
g23
Ntp193
Rp194
(dp195
g27
I00
sg21
g13
(g22
g23
Ntp196
Rp197
(dp198
g27
I00
sg21
g13
(g14
g15
V | 
p199
tp200
Rp201
(dp202
g20
g197
sg21
g13
(g14
g15
VWednesday, April 10th
p203
tp204
Rp205
(dp206
g20
Nsg21
g13
(g22
g23
Ntp207
Rp208
(dp209
g27
I00
sg21
Nsg20
g201
sg67
Vsmall
p210
sg69
g13
(g70
g23
Ntp211
Rp212
(dp213
g27
I00
sg21
g13
(g14
g15
VRegister online April 10 - July 9 at transport.tamu.edu. There is no advantage to registering earlier in the registration process; however, registrations must be completed by July 9 to be assigned a permit with the first distribution. Registrations completed after the July 9 deadline will be assigned on a first come, first served basis based on the remaining availability.
p214
tp215
Rp216
(dp217
g20
Nsg21
g13
(g22
g23
Ntp218
Rp219
(dp220
g27
I00
sg21
g167
sg20
Nsg67
Vdiv
p221
sg69
g212
sg82
Nsg83
Nsg84
g170
sg85
(dp222
Vclass
p223
(lp224
Vsummary
p225
asVrel
p226
Vsummary
p227
ssg92
g216
sg93
g70
sg94
I00
sg95
(lp228
g216
asbsg84
Nsg92
Nsg69
g219
sbsg20
Nsg83
Nsg85
(dp229
sg95
(lp230
g208
ag201
ag197
ag187
ag184
ag174
ag170
ag219
asg99
(lp231
g212
asg93
g70
sg82
Nsg84
Nsg101
I00
sg92
Nsg69
Nsg102
Nsg103
I00
sg104
Nsg94
I1
sg105
Nsg67
g106
sg107
g13
(g108
g23
Ntp232
Rp233
(dp234
g112
Nsg113
((t(dp235
tp236
sbsg116
g212
sg117
(lp237
sg119
Nsbsg82
Nsg83
Nsg84
Nsg85
(dp238
Vclass
p239
(lp240
Vday
p241
asVrel
p242
Vday
p243
ssg92
g205
sg93
g70
sg94
I00
sg95
(lp244
g205
asbsg84
Nsg92
g201
sg69
g208
sbsg84
g208
sg92
g197
sg69
g212
sbsg20
g187
sg67
Vsmall
p245
sg69
g212
sg82
Nsg83
Nsg84
g201
sg85
(dp246
sg92
g194
sg93
g70
sg94
I00
sg95
(lp247
g194
asbsg20
Nsg67
Vabbr
p248
sg69
g197
sg82
Nsg83
Nsg84
Nsg85
(dp249
Vclass
p250
(lp251
Vdtstart
p252
asVrel
p253
Vdtstart
p254
sVtitle
p255
g163
ssg92
g191
sg93
g70
sg94
I00
sg95
(lp256
g191
asbsg84
Nsg92
g187
sg69
g194
sbsg84
g197
sg92
g184
sg69
g212
sbsg20
g174
sg67
Vsmall
p257
sg69
g212
sg82
Nsg83
Nsg84
g187
sg85
(dp258
sg92
g181
sg93
g70
sg94
I00
sg95
(lp259
g181
asbsg20
Nsg67
Vabbr
p260
sg69
g184
sg82
Nsg83
Nsg84
Nsg85
(dp261
Vclass
p262
(lp263
Vdtend
p264
asVrel
p265
Vdtend
p266
sVtitle
p267
g160
ssg92
g178
sg93
g70
sg94
I00
sg95
(lp268
g178
asbsg84
Nsg92
g174
sg69
g181
sbsg84
g184
sg92
g170
sg69
g212
sbsg20
g219
sg67
Vsmall
p269
sg69
g212
sg82
Nsg83
Nsg84
g174
sg85
(dp270
Vclass
p271
(lp272
Vlocation
p273
asVrel
p274
Vlocation
p275
ssg92
g167
sg93
g70
sg94
I00
sg95
(lp276
g167
asbsg84
Nsg92
g219
sg69
g170
sbsa(dp277
g2
V2013-04-12T16:00:00-0500
p278
sg4
VALEC Awards Reception
p279
sg6
VThe department of Agricultural Leadership, Education, & Communication invites donors, former students, parents, and scholarship and award recipients to their 2nd Annual ALEC Awards Reception. Please RSVP by April 1st and include the name of your guests.  Light hors d'oeuvres and refreshments will be served. For more information, please visit alec.tamu.edu/formerstudents\u000a\u000aSource\u000ahttp://calendar.tamu.edu/?&y=2013&m=04&d=12&eventdatetime_id=14634&
p280
sg8
V2013-04-12T14:00:00-0500
p281
sg10
Vhttp://calendar.tamu.edu/?&y=2013&m=04&d=12&eventdatetime_id=14634&
p282
sg12
g13
(g14
g15
VAgrilife Center  (AGCT)
p283
tp284
Rp285
(dp286
g20
Nsg21
g13
(g22
g23
Ntp287
Rp288
(dp289
g27
I00
sg21
g13
(g14
g15
V | 
p290
tp291
Rp292
(dp293
g20
g288
sg21
g13
(g14
g15
V4:00 pm
p294
tp295
Rp296
(dp297
g20
Nsg21
g13
(g22
g23
Ntp298
Rp299
(dp300
g27
I00
sg21
g13
(g22
g23
Ntp301
Rp302
(dp303
g27
I00
sg21
g13
(g14
g15
g42
tp304
Rp305
(dp306
g20
g302
sg21
g13
(g14
g15
V2:00 pm
p307
tp308
Rp309
(dp310
g20
Nsg21
g13
(g22
g23
Ntp311
Rp312
(dp313
g27
I00
sg21
g13
(g22
g23
Ntp314
Rp315
(dp316
g27
I00
sg21
g13
(g14
g15
V | 
p317
tp318
Rp319
(dp320
g20
g315
sg21
g13
(g14
g15
VFriday, April 12th
p321
tp322
Rp323
(dp324
g20
Nsg21
g13
(g22
g23
Ntp325
Rp326
(dp327
g27
I00
sg21
g13
(g14
g15
VDonor & Scholarship Recognition Event
p328
tp329
Rp330
(dp331
g20
Nsg21
g13
(g22
g23
Ntp332
Rp333
(dp334
g27
I00
sg21
Nsg20
g326
sg67
Vdiv
p335
sg69
g13
(g70
g23
Ntp336
Rp337
(dp338
g27
I00
sg21
g13
(g14
g15
VThe department of Agricultural Leadership, Education, & Communication invites donors, former students, parents, and scholarship and award recipients to their 2nd Annual ALEC Awards Reception. Please RSVP by April 1st and include the name of your guests.  Light hors d'oeuvres and refreshments will be served. For more information, please visit alec.tamu.edu/formerstudents
p339
tp340
Rp341
(dp342
g20
Nsg21
g13
(g22
g23
Ntp343
Rp344
(dp345
g27
I00
sg21
g285
sg20
Nsg67
Vdiv
p346
sg69
g337
sg82
Nsg83
Nsg84
g288
sg85
(dp347
Vclass
p348
(lp349
Vsummary
p350
asVrel
p351
Vsummary
p352
ssg92
g341
sg93
g70
sg94
I00
sg95
(lp353
g341
asbsg84
Nsg92
Nsg69
g344
sbsg20
Nsg83
Nsg85
(dp354
sg95
(lp355
g333
ag326
ag319
ag315
ag305
ag302
ag292
ag288
ag344
asg99
(lp356
g337
asg93
g70
sg82
Nsg84
Nsg101
I00
sg92
Nsg69
Nsg102
Nsg103
I00
sg104
Nsg94
I1
sg105
Nsg67
g106
sg107
g13
(g108
g23
Ntp357
Rp358
(dp359
g112
Nsg113
((t(dp360
tp361
sbsg116
g337
sg117
(lp362
sg119
Nsbsg82
Nsg83
Nsg84
Nsg85
(dp363
Vclass
p364
(lp365
Vsubtitle
p366
asVrel
p367
Vsubtitle
p368
ssg92
g330
sg93
g70
sg94
I00
sg95
(lp369
g330
asbsg84
Nsg92
g326
sg69
g333
sbsg20
g319
sg67
Vsmall
p370
sg69
g337
sg82
Nsg83
Nsg84
g333
sg85
(dp371
Vclass
p372
(lp373
Vday
p374
asVrel
p375
Vday
p376
ssg92
g323
sg93
g70
sg94
I00
sg95
(lp377
g323
asbsg84
Nsg92
g319
sg69
g326
sbsg84
g326
sg92
g315
sg69
g337
sbsg20
g305
sg67
Vsmall
p378
sg69
g337
sg82
Nsg83
Nsg84
g319
sg85
(dp379
sg92
g312
sg93
g70
sg94
I00
sg95
(lp380
g312
asbsg20
Nsg67
Vabbr
p381
sg69
g315
sg82
Nsg83
Nsg84
Nsg85
(dp382
Vclass
p383
(lp384
Vdtstart
p385
asVrel
p386
Vdtstart
p387
sVtitle
p388
g281
ssg92
g309
sg93
g70
sg94
I00
sg95
(lp389
g309
asbsg84
Nsg92
g305
sg69
g312
sbsg84
g315
sg92
g302
sg69
g337
sbsg20
g292
sg67
Vsmall
p390
sg69
g337
sg82
Nsg83
Nsg84
g305
sg85
(dp391
sg92
g299
sg93
g70
sg94
I00
sg95
(lp392
g299
asbsg20
Nsg67
Vabbr
p393
sg69
g302
sg82
Nsg83
Nsg84
Nsg85
(dp394
Vclass
p395
(lp396
Vdtend
p397
asVrel
p398
Vdtend
p399
sVtitle
p400
g278
ssg92
g296
sg93
g70
sg94
I00
sg95
(lp401
g296
asbsg84
Nsg92
g292
sg69
g299
sbsg84
g302
sg92
g288
sg69
g337
sbsg20
g344
sg67
Vsmall
p402
sg69
g337
sg82
Nsg83
Nsg84
g292
sg85
(dp403
Vclass
p404
(lp405
Vlocation
p406
asVrel
p407
Vlocation
p408
ssg92
g285
sg93
g70
sg94
I00
sg95
(lp409
g285
asbsg84
Nsg92
g344
sg69
g288
sbsa(dp410
g2
V2013-04-16T00:00:00-0500
p411
sg4
VAnnual Parking Permit Registration
p412
sg6
VRegister online April 10 - July 9 at transport.tamu.edu. There is no advantage to registering earlier in the registration process; however, registrations must be completed by July 9 to be assigned a permit with the first distribution. Registrations completed after the July 9 deadline will be assigned on a first come, first served basis based on the remaining availability.\u000a\u000aSource\u000ahttp://calendar.tamu.edu/?&y=2013&m=04&d=10&eventdatetime_id=15170&
p413
sg8
V2013-04-10T00:00:00-0500
p414
sg10
Vhttp://calendar.tamu.edu/?&y=2013&m=04&d=10&eventdatetime_id=15170&
p415
sg12
g13
(g14
g15
V Texas A&M University
p416
tp417
Rp418
(dp419
g20
Nsg21
g13
(g22
g23
Ntp420
Rp421
(dp422
g27
I00
sg21
g13
(g14
g15
V | 
p423
tp424
Rp425
(dp426
g20
g421
sg21
g13
(g14
g15
V12:00 am
p427
tp428
Rp429
(dp430
g20
Nsg21
g13
(g22
g23
Ntp431
Rp432
(dp433
g27
I00
sg21
g13
(g22
g23
Ntp434
Rp435
(dp436
g27
I00
sg21
g13
(g14
g15
g42
tp437
Rp438
(dp439
g20
g435
sg21
g13
(g14
g15
VAll day
p440
tp441
Rp442
(dp443
g20
Nsg21
g13
(g22
g23
Ntp444
Rp445
(dp446
g27
I00
sg21
g13
(g22
g23
Ntp447
Rp448
(dp449
g27
I00
sg21
g13
(g14
g15
V | 
p450
tp451
Rp452
(dp453
g20
g448
sg21
g13
(g14
g15
VWednesday, April 10th
p454
tp455
Rp456
(dp457
g20
Nsg21
g13
(g22
g23
Ntp458
Rp459
(dp460
g27
I00
sg21
Nsg20
g452
sg67
Vsmall
p461
sg69
g13
(g70
g23
Ntp462
Rp463
(dp464
g27
I00
sg21
g13
(g14
g15
VRegister online April 10 - July 9 at transport.tamu.edu. There is no advantage to registering earlier in the registration process; however, registrations must be completed by July 9 to be assigned a permit with the first distribution. Registrations completed after the July 9 deadline will be assigned on a first come, first served basis based on the remaining availability.
p465
tp466
Rp467
(dp468
g20
Nsg21
g13
(g22
g23
Ntp469
Rp470
(dp471
g27
I00
sg21
g418
sg20
Nsg67
Vdiv
p472
sg69
g463
sg82
Nsg83
Nsg84
g421
sg85
(dp473
Vclass
p474
(lp475
Vsummary
p476
asVrel
p477
Vsummary
p478
ssg92
g467
sg93
g70
sg94
I00
sg95
(lp479
g467
asbsg84
Nsg92
Nsg69
g470
sbsg20
Nsg83
Nsg85
(dp480
sg95
(lp481
g459
ag452
ag448
ag438
ag435
ag425
ag421
ag470
asg99
(lp482
g463
asg93
g70
sg82
Nsg84
Nsg101
I00
sg92
Nsg69
Nsg102
Nsg103
I00
sg104
Nsg94
I1
sg105
Nsg67
g106
sg107
g13
(g108
g23
Ntp483
Rp484
(dp485
g112
Nsg113
((t(dp486
tp487
sbsg116
g463
sg117
(lp488
sg119
Nsbsg82
Nsg83
Nsg84
Nsg85
(dp489
Vclass
p490
(lp491
Vday
p492
asVrel
p493
Vday
p494
ssg92
g456
sg93
g70
sg94
I00
sg95
(lp495
g456
asbsg84
Nsg92
g452
sg69
g459
sbsg84
g459
sg92
g448
sg69
g463
sbsg20
g438
sg67
Vsmall
p496
sg69
g463
sg82
Nsg83
Nsg84
g452
sg85
(dp497
sg92
g445
sg93
g70
sg94
I00
sg95
(lp498
g445
asbsg20
Nsg67
Vabbr
p499
sg69
g448
sg82
Nsg83
Nsg84
Nsg85
(dp500
Vclass
p501
(lp502
Vdtstart
p503
asVrel
p504
Vdtstart
p505
sVtitle
p506
g414
ssg92
g442
sg93
g70
sg94
I00
sg95
(lp507
g442
asbsg84
Nsg92
g438
sg69
g445
sbsg84
g448
sg92
g435
sg69
g463
sbsg20
g425
sg67
Vsmall
p508
sg69
g463
sg82
Nsg83
Nsg84
g438
sg85
(dp509
sg92
g432
sg93
g70
sg94
I00
sg95
(lp510
g432
asbsg20
Nsg67
Vabbr
p511
sg69
g435
sg82
Nsg83
Nsg84
Nsg85
(dp512
Vclass
p513
(lp514
Vdtend
p515
asVrel
p516
Vdtend
p517
sVtitle
p518
g411
ssg92
g429
sg93
g70
sg94
I00
sg95
(lp519
g429
asbsg84
Nsg92
g425
sg69
g432
sbsg84
g435
sg92
g421
sg69
g463
sbsg20
g470
sg67
Vsmall
p520
sg69
g463
sg82
Nsg83
Nsg84
g425
sg85
(dp521
Vclass
p522
(lp523
Vlocation
p524
asVrel
p525
Vlocation
p526
ssg92
g418
sg93
g70
sg94
I00
sg95
(lp527
g418
asbsg84
Nsg92
g470
sg69
g421
sbsa(dp528
g2
V2013-04-16T00:00:00-0500
p529
sg4
VAnnual Parking Permit Registration
p530
sg6
VRegister online April 10 - July 9 at transport.tamu.edu. There is no advantage to registering earlier in the registration process; however, registrations must be completed by July 9 to be assigned a permit with the first distribution. Registrations completed after the July 9 deadline will be assigned on a first come, first served basis based on the remaining availability.\u000a\u000aSource\u000ahttp://calendar.tamu.edu/?&y=2013&m=04&d=10&eventdatetime_id=15170&
p531
sg8
V2013-04-10T00:00:00-0500
p532
sg10
Vhttp://calendar.tamu.edu/?&y=2013&m=04&d=10&eventdatetime_id=15170&
p533
sg12
g13
(g14
g15
V Texas A&M University
p534
tp535
Rp536
(dp537
g20
Nsg21
g13
(g22
g23
Ntp538
Rp539
(dp540
g27
I00
sg21
g13
(g14
g15
V | 
p541
tp542
Rp543
(dp544
g20
g539
sg21
g13
(g14
g15
V12:00 am
p545
tp546
Rp547
(dp548
g20
Nsg21
g13
(g22
g23
Ntp549
Rp550
(dp551
g27
I00
sg21
g13
(g22
g23
Ntp552
Rp553
(dp554
g27
I00
sg21
g13
(g14
g15
g42
tp555
Rp556
(dp557
g20
g553
sg21
g13
(g14
g15
VAll day
p558
tp559
Rp560
(dp561
g20
Nsg21
g13
(g22
g23
Ntp562
Rp563
(dp564
g27
I00
sg21
g13
(g22
g23
Ntp565
Rp566
(dp567
g27
I00
sg21
g13
(g14
g15
V | 
p568
tp569
Rp570
(dp571
g20
g566
sg21
g13
(g14
g15
VWednesday, April 10th
p572
tp573
Rp574
(dp575
g20
Nsg21
g13
(g22
g23
Ntp576
Rp577
(dp578
g27
I00
sg21
Nsg20
g570
sg67
Vsmall
p579
sg69
g13
(g70
g23
Ntp580
Rp581
(dp582
g27
I00
sg21
g13
(g14
g15
VRegister online April 10 - July 9 at transport.tamu.edu. There is no advantage to registering earlier in the registration process; however, registrations must be completed by July 9 to be assigned a permit with the first distribution. Registrations completed after the July 9 deadline will be assigned on a first come, first served basis based on the remaining availability.
p583
tp584
Rp585
(dp586
g20
Nsg21
g13
(g22
g23
Ntp587
Rp588
(dp589
g27
I00
sg21
g536
sg20
Nsg67
Vdiv
p590
sg69
g581
sg82
Nsg83
Nsg84
g539
sg85
(dp591
Vclass
p592
(lp593
Vsummary
p594
asVrel
p595
Vsummary
p596
ssg92
g585
sg93
g70
sg94
I00
sg95
(lp597
g585
asbsg84
Nsg92
Nsg69
g588
sbsg20
Nsg83
Nsg85
(dp598
sg95
(lp599
g577
ag570
ag566
ag556
ag553
ag543
ag539
ag588
asg99
(lp600
g581
asg93
g70
sg82
Nsg84
Nsg101
I00
sg92
Nsg69
Nsg102
Nsg103
I00
sg104
Nsg94
I1
sg105
Nsg67
g106
sg107
g13
(g108
g23
Ntp601
Rp602
(dp603
g112
Nsg113
((t(dp604
tp605
sbsg116
g581
sg117
(lp606
sg119
Nsbsg82
Nsg83
Nsg84
Nsg85
(dp607
Vclass
p608
(lp609
Vday
p610
asVrel
p611
Vday
p612
ssg92
g574
sg93
g70
sg94
I00
sg95
(lp613
g574
asbsg84
Nsg92
g570
sg69
g577
sbsg84
g577
sg92
g566
sg69
g581
sbsg20
g556
sg67
Vsmall
p614
sg69
g581
sg82
Nsg83
Nsg84
g570
sg85
(dp615
sg92
g563
sg93
g70
sg94
I00
sg95
(lp616
g563
asbsg20
Nsg67
Vabbr
p617
sg69
g566
sg82
Nsg83
Nsg84
Nsg85
(dp618
Vclass
p619
(lp620
Vdtstart
p621
asVrel
p622
Vdtstart
p623
sVtitle
p624
g532
ssg92
g560
sg93
g70
sg94
I00
sg95
(lp625
g560
asbsg84
Nsg92
g556
sg69
g563
sbsg84
g566
sg92
g553
sg69
g581
sbsg20
g543
sg67
Vsmall
p626
sg69
g581
sg82
Nsg83
Nsg84
g556
sg85
(dp627
sg92
g550
sg93
g70
sg94
I00
sg95
(lp628
g550
asbsg20
Nsg67
Vabbr
p629
sg69
g553
sg82
Nsg83
Nsg84
Nsg85
(dp630
Vclass
p631
(lp632
Vdtend
p633
asVrel
p634
Vdtend
p635
sVtitle
p636
g529
ssg92
g547
sg93
g70
sg94
I00
sg95
(lp637
g547
asbsg84
Nsg92
g543
sg69
g550
sbsg84
g553
sg92
g539
sg69
g581
sbsg20
g588
sg67
Vsmall
p638
sg69
g581
sg82
Nsg83
Nsg84
g543
sg85
(dp639
Vclass
p640
(lp641
Vlocation
p642
asVrel
p643
Vlocation
p644
ssg92
g536
sg93
g70
sg94
I00
sg95
(lp645
g536
asbsg84
Nsg92
g588
sg69
g539
sbsa(dp646
g2
V2013-04-14T00:00:00-0500
p647
sg4
V23rd Annual Practical Membrane/Filtration & Separations Technologies Short Course
p648
sg6
VAttendees will review basic principles of membrane filtration and separations processing, learn about new product formulators and will be given a chance to view demonstrations in the pilot plant facilities at the Food Protein Research & Development Center.\u000a\u000aSource\u000ahttp://calendar.tamu.edu/?&y=2013&m=04&d=14&eventdatetime_id=14838&
p649
sg8
g647
sg10
Vhttp://calendar.tamu.edu/?&y=2013&m=04&d=14&eventdatetime_id=14838&
p650
sg12
g13
(g14
g15
VRudder Tower (RDER)
p651
tp652
Rp653
(dp654
g20
Nsg21
g13
(g22
g23
Ntp655
Rp656
(dp657
g27
I00
sg21
g13
(g14
g15
V | 
p658
tp659
Rp660
(dp661
g20
g656
sg21
g13
(g14
g15
VAll day
p662
tp663
Rp664
(dp665
g20
Nsg21
g13
(g22
g23
Ntp666
Rp667
(dp668
g27
I00
sg21
g13
(g22
g23
Ntp669
Rp670
(dp671
g27
I00
sg21
g13
(g14
g15
V | 
p672
tp673
Rp674
(dp675
g20
g670
sg21
g13
(g14
g15
VSunday, April 14th
p676
tp677
Rp678
(dp679
g20
Nsg21
g13
(g22
g23
Ntp680
Rp681
(dp682
g27
I00
sg21
Nsg20
g674
sg67
Vsmall
p683
sg69
g13
(g70
g23
Ntp684
Rp685
(dp686
g27
I00
sg21
g13
(g14
g15
VAttendees will review basic principles of membrane filtration and separations processing, learn about new product formulators and will be given a chance to view demonstrations in the pilot plant facilities at the Food Protein Research & Development Center.
p687
tp688
Rp689
(dp690
g20
Nsg21
g13
(g22
g23
Ntp691
Rp692
(dp693
g27
I00
sg21
g653
sg20
Nsg67
Vdiv
p694
sg69
g685
sg82
Nsg83
Nsg84
g656
sg85
(dp695
Vclass
p696
(lp697
Vsummary
p698
asVrel
p699
Vsummary
p700
ssg92
g689
sg93
g70
sg94
I00
sg95
(lp701
g689
asbsg84
Nsg92
Nsg69
g692
sbsg20
Nsg83
Nsg85
(dp702
sg95
(lp703
g681
ag674
ag670
ag660
ag656
ag692
asg99
(lp704
g685
asg93
g70
sg82
Nsg84
Nsg101
I00
sg92
Nsg69
Nsg102
Nsg103
I00
sg104
Nsg94
I1
sg105
Nsg67
g106
sg107
g13
(g108
g23
Ntp705
Rp706
(dp707
g112
Nsg113
((t(dp708
tp709
sbsg116
g685
sg117
(lp710
sg119
Nsbsg82
Nsg83
Nsg84
Nsg85
(dp711
Vclass
p712
(lp713
Vday
p714
asVrel
p715
Vday
p716
ssg92
g678
sg93
g70
sg94
I00
sg95
(lp717
g678
asbsg84
Nsg92
g674
sg69
g681
sbsg84
g681
sg92
g670
sg69
g685
sbsg20
g660
sg67
Vsmall
p718
sg69
g685
sg82
Nsg83
Nsg84
g674
sg85
(dp719
sg92
g667
sg93
g70
sg94
I00
sg95
(lp720
g667
asbsg20
Nsg67
Vabbr
p721
sg69
g670
sg82
Nsg83
Nsg84
Nsg85
(dp722
Vclass
p723
(lp724
Vdtstart
p725
asVrel
p726
Vdtstart
p727
sVtitle
p728
g647
ssg92
g664
sg93
g70
sg94
I00
sg95
(lp729
g664
asbsg84
Nsg92
g660
sg69
g667
sbsg84
g670
sg92
g656
sg69
g685
sbsg20
g692
sg67
Vsmall
p730
sg69
g685
sg82
Nsg83
Nsg84
g660
sg85
(dp731
Vclass
p732
(lp733
Vlocation
p734
asVrel
p735
Vlocation
p736
ssg92
g653
sg93
g70
sg94
I00
sg95
(lp737
g653
asbsg84
Nsg92
g692
sg69
g656
sbsa(dp738
g2
V2013-04-16T00:00:00-0500
p739
sg4
VAnnual Parking Permit Registration
p740
sg6
VRegister online April 10 - July 9 at transport.tamu.edu. There is no advantage to registering earlier in the registration process; however, registrations must be completed by July 9 to be assigned a permit with the first distribution. Registrations completed after the July 9 deadline will be assigned on a first come, first served basis based on the remaining availability.\u000a\u000aSource\u000ahttp://calendar.tamu.edu/?&y=2013&m=04&d=10&eventdatetime_id=15170&
p741
sg8
V2013-04-10T00:00:00-0500
p742
sg10
Vhttp://calendar.tamu.edu/?&y=2013&m=04&d=10&eventdatetime_id=15170&
p743
sg12
g13
(g14
g15
V Texas A&M University
p744
tp745
Rp746
(dp747
g20
Nsg21
g13
(g22
g23
Ntp748
Rp749
(dp750
g27
I00
sg21
g13
(g14
g15
V | 
p751
tp752
Rp753
(dp754
g20
g749
sg21
g13
(g14
g15
V12:00 am
p755
tp756
Rp757
(dp758
g20
Nsg21
g13
(g22
g23
Ntp759
Rp760
(dp761
g27
I00
sg21
g13
(g22
g23
Ntp762
Rp763
(dp764
g27
I00
sg21
g13
(g14
g15
g42
tp765
Rp766
(dp767
g20
g763
sg21
g13
(g14
g15
VAll day
p768
tp769
Rp770
(dp771
g20
Nsg21
g13
(g22
g23
Ntp772
Rp773
(dp774
g27
I00
sg21
g13
(g22
g23
Ntp775
Rp776
(dp777
g27
I00
sg21
g13
(g14
g15
V | 
p778
tp779
Rp780
(dp781
g20
g776
sg21
g13
(g14
g15
VWednesday, April 10th
p782
tp783
Rp784
(dp785
g20
Nsg21
g13
(g22
g23
Ntp786
Rp787
(dp788
g27
I00
sg21
Nsg20
g780
sg67
Vsmall
p789
sg69
g13
(g70
g23
Ntp790
Rp791
(dp792
g27
I00
sg21
g13
(g14
g15
VRegister online April 10 - July 9 at transport.tamu.edu. There is no advantage to registering earlier in the registration process; however, registrations must be completed by July 9 to be assigned a permit with the first distribution. Registrations completed after the July 9 deadline will be assigned on a first come, first served basis based on the remaining availability.
p793
tp794
Rp795
(dp796
g20
Nsg21
g13
(g22
g23
Ntp797
Rp798
(dp799
g27
I00
sg21
g746
sg20
Nsg67
Vdiv
p800
sg69
g791
sg82
Nsg83
Nsg84
g749
sg85
(dp801
Vclass
p802
(lp803
Vsummary
p804
asVrel
p805
Vsummary
p806
ssg92
g795
sg93
g70
sg94
I00
sg95
(lp807
g795
asbsg84
Nsg92
Nsg69
g798
sbsg20
Nsg83
Nsg85
(dp808
sg95
(lp809
g787
ag780
ag776
ag766
ag763
ag753
ag749
ag798
asg99
(lp810
g791
asg93
g70
sg82
Nsg84
Nsg101
I00
sg92
Nsg69
Nsg102
Nsg103
I00
sg104
Nsg94
I1
sg105
Nsg67
g106
sg107
g13
(g108
g23
Ntp811
Rp812
(dp813
g112
Nsg113
((t(dp814
tp815
sbsg116
g791
sg117
(lp816
sg119
Nsbsg82
Nsg83
Nsg84
Nsg85
(dp817
Vclass
p818
(lp819
Vday
p820
asVrel
p821
Vday
p822
ssg92
g784
sg93
g70
sg94
I00
sg95
(lp823
g784
asbsg84
Nsg92
g780
sg69
g787
sbsg84
g787
sg92
g776
sg69
g791
sbsg20
g766
sg67
Vsmall
p824
sg69
g791
sg82
Nsg83
Nsg84
g780
sg85
(dp825
sg92
g773
sg93
g70
sg94
I00
sg95
(lp826
g773
asbsg20
Nsg67
Vabbr
p827
sg69
g776
sg82
Nsg83
Nsg84
Nsg85
(dp828
Vclass
p829
(lp830
Vdtstart
p831
asVrel
p832
Vdtstart
p833
sVtitle
p834
g742
ssg92
g770
sg93
g70
sg94
I00
sg95
(lp835
g770
asbsg84
Nsg92
g766
sg69
g773
sbsg84
g776
sg92
g763
sg69
g791
sbsg20
g753
sg67
Vsmall
p836
sg69
g791
sg82
Nsg83
Nsg84
g766
sg85
(dp837
sg92
g760
sg93
g70
sg94
I00
sg95
(lp838
g760
asbsg20
Nsg67
Vabbr
p839
sg69
g763
sg82
Nsg83
Nsg84
Nsg85
(dp840
Vclass
p841
(lp842
Vdtend
p843
asVrel
p844
Vdtend
p845
sVtitle
p846
g739
ssg92
g757
sg93
g70
sg94
I00
sg95
(lp847
g757
asbsg84
Nsg92
g753
sg69
g760
sbsg84
g763
sg92
g749
sg69
g791
sbsg20
g798
sg67
Vsmall
p848
sg69
g791
sg82
Nsg83
Nsg84
g753
sg85
(dp849
Vclass
p850
(lp851
Vlocation
p852
asVrel
p853
Vlocation
p854
ssg92
g746
sg93
g70
sg94
I00
sg95
(lp855
g746
asbsg84
Nsg92
g798
sg69
g749
sbsa(dp856
g2
V2013-04-16T00:00:00-0500
p857
sg4
VAnnual Parking Permit Registration
p858
sg6
VRegister online April 10 - July 9 at transport.tamu.edu. There is no advantage to registering earlier in the registration process; however, registrations must be completed by July 9 to be assigned a permit with the first distribution. Registrations completed after the July 9 deadline will be assigned on a first come, first served basis based on the remaining availability.\u000a\u000aSource\u000ahttp://calendar.tamu.edu/?&y=2013&m=04&d=10&eventdatetime_id=15170&
p859
sg8
V2013-04-10T00:00:00-0500
p860
sg10
Vhttp://calendar.tamu.edu/?&y=2013&m=04&d=10&eventdatetime_id=15170&
p861
sg12
g13
(g14
g15
V Texas A&M University
p862
tp863
Rp864
(dp865
g20
Nsg21
g13
(g22
g23
Ntp866
Rp867
(dp868
g27
I00
sg21
g13
(g14
g15
V | 
p869
tp870
Rp871
(dp872
g20
g867
sg21
g13
(g14
g15
V12:00 am
p873
tp874
Rp875
(dp876
g20
Nsg21
g13
(g22
g23
Ntp877
Rp878
(dp879
g27
I00
sg21
g13
(g22
g23
Ntp880
Rp881
(dp882
g27
I00
sg21
g13
(g14
g15
g42
tp883
Rp884
(dp885
g20
g881
sg21
g13
(g14
g15
VAll day
p886
tp887
Rp888
(dp889
g20
Nsg21
g13
(g22
g23
Ntp890
Rp891
(dp892
g27
I00
sg21
g13
(g22
g23
Ntp893
Rp894
(dp895
g27
I00
sg21
g13
(g14
g15
V | 
p896
tp897
Rp898
(dp899
g20
g894
sg21
g13
(g14
g15
VWednesday, April 10th
p900
tp901
Rp902
(dp903
g20
Nsg21
g13
(g22
g23
Ntp904
Rp905
(dp906
g27
I00
sg21
Nsg20
g898
sg67
Vsmall
p907
sg69
g13
(g70
g23
Ntp908
Rp909
(dp910
g27
I00
sg21
g13
(g14
g15
VRegister online April 10 - July 9 at transport.tamu.edu. There is no advantage to registering earlier in the registration process; however, registrations must be completed by July 9 to be assigned a permit with the first distribution. Registrations completed after the July 9 deadline will be assigned on a first come, first served basis based on the remaining availability.
p911
tp912
Rp913
(dp914
g20
Nsg21
g13
(g22
g23
Ntp915
Rp916
(dp917
g27
I00
sg21
g864
sg20
Nsg67
Vdiv
p918
sg69
g909
sg82
Nsg83
Nsg84
g867
sg85
(dp919
Vclass
p920
(lp921
Vsummary
p922
asVrel
p923
Vsummary
p924
ssg92
g913
sg93
g70
sg94
I00
sg95
(lp925
g913
asbsg84
Nsg92
Nsg69
g916
sbsg20
Nsg83
Nsg85
(dp926
sg95
(lp927
g905
ag898
ag894
ag884
ag881
ag871
ag867
ag916
asg99
(lp928
g909
asg93
g70
sg82
Nsg84
Nsg101
I00
sg92
Nsg69
Nsg102
Nsg103
I00
sg104
Nsg94
I1
sg105
Nsg67
g106
sg107
g13
(g108
g23
Ntp929
Rp930
(dp931
g112
Nsg113
((t(dp932
tp933
sbsg116
g909
sg117
(lp934
sg119
Nsbsg82
Nsg83
Nsg84
Nsg85
(dp935
Vclass
p936
(lp937
Vday
p938
asVrel
p939
Vday
p940
ssg92
g902
sg93
g70
sg94
I00
sg95
(lp941
g902
asbsg84
Nsg92
g898
sg69
g905
sbsg84
g905
sg92
g894
sg69
g909
sbsg20
g884
sg67
Vsmall
p942
sg69
g909
sg82
Nsg83
Nsg84
g898
sg85
(dp943
sg92
g891
sg93
g70
sg94
I00
sg95
(lp944
g891
asbsg20
Nsg67
Vabbr
p945
sg69
g894
sg82
Nsg83
Nsg84
Nsg85
(dp946
Vclass
p947
(lp948
Vdtstart
p949
asVrel
p950
Vdtstart
p951
sVtitle
p952
g860
ssg92
g888
sg93
g70
sg94
I00
sg95
(lp953
g888
asbsg84
Nsg92
g884
sg69
g891
sbsg84
g894
sg92
g881
sg69
g909
sbsg20
g871
sg67
Vsmall
p954
sg69
g909
sg82
Nsg83
Nsg84
g884
sg85
(dp955
sg92
g878
sg93
g70
sg94
I00
sg95
(lp956
g878
asbsg20
Nsg67
Vabbr
p957
sg69
g881
sg82
Nsg83
Nsg84
Nsg85
(dp958
Vclass
p959
(lp960
Vdtend
p961
asVrel
p962
Vdtend
p963
sVtitle
p964
g857
ssg92
g875
sg93
g70
sg94
I00
sg95
(lp965
g875
asbsg84
Nsg92
g871
sg69
g878
sbsg84
g881
sg92
g867
sg69
g909
sbsg20
g916
sg67
Vsmall
p966
sg69
g909
sg82
Nsg83
Nsg84
g871
sg85
(dp967
Vclass
p968
(lp969
Vlocation
p970
asVrel
p971
Vlocation
p972
ssg92
g864
sg93
g70
sg94
I00
sg95
(lp973
g864
asbsg84
Nsg92
g916
sg69
g867
sbsa(dp974
g2
V2013-04-16T00:00:00-0500
p975
sg4
VAnnual Parking Permit Registration
p976
sg6
VRegister online April 10 - July 9 at transport.tamu.edu. There is no advantage to registering earlier in the registration process; however, registrations must be completed by July 9 to be assigned a permit with the first distribution. Registrations completed after the July 9 deadline will be assigned on a first come, first served basis based on the remaining availability.\u000a\u000aSource\u000ahttp://calendar.tamu.edu/?&y=2013&m=04&d=10&eventdatetime_id=15170&
p977
sg8
V2013-04-10T00:00:00-0500
p978
sg10
Vhttp://calendar.tamu.edu/?&y=2013&m=04&d=10&eventdatetime_id=15170&
p979
sg12
g13
(g14
g15
V Texas A&M University
p980
tp981
Rp982
(dp983
g20
Nsg21
g13
(g22
g23
Ntp984
Rp985
(dp986
g27
I00
sg21
g13
(g14
g15
V | 
p987
tp988
Rp989
(dp990
g20
g985
sg21
g13
(g14
g15
V12:00 am
p991
tp992
Rp993
(dp994
g20
Nsg21
g13
(g22
g23
Ntp995
Rp996
(dp997
g27
I00
sg21
g13
(g22
g23
Ntp998
Rp999
(dp1000
g27
I00
sg21
g13
(g14
g15
g42
tp1001
Rp1002
(dp1003
g20
g999
sg21
g13
(g14
g15
VAll day
p1004
tp1005
Rp1006
(dp1007
g20
Nsg21
g13
(g22
g23
Ntp1008
Rp1009
(dp1010
g27
I00
sg21
g13
(g22
g23
Ntp1011
Rp1012
(dp1013
g27
I00
sg21
g13
(g14
g15
V | 
p1014
tp1015
Rp1016
(dp1017
g20
g1012
sg21
g13
(g14
g15
VWednesday, April 10th
p1018
tp1019
Rp1020
(dp1021
g20
Nsg21
g13
(g22
g23
Ntp1022
Rp1023
(dp1024
g27
I00
sg21
Nsg20
g1016
sg67
Vsmall
p1025
sg69
g13
(g70
g23
Ntp1026
Rp1027
(dp1028
g27
I00
sg21
g13
(g14
g15
VRegister online April 10 - July 9 at transport.tamu.edu. There is no advantage to registering earlier in the registration process; however, registrations must be completed by July 9 to be assigned a permit with the first distribution. Registrations completed after the July 9 deadline will be assigned on a first come, first served basis based on the remaining availability.
p1029
tp1030
Rp1031
(dp1032
g20
Nsg21
g13
(g22
g23
Ntp1033
Rp1034
(dp1035
g27
I00
sg21
g982
sg20
Nsg67
Vdiv
p1036
sg69
g1027
sg82
Nsg83
Nsg84
g985
sg85
(dp1037
Vclass
p1038
(lp1039
Vsummary
p1040
asVrel
p1041
Vsummary
p1042
ssg92
g1031
sg93
g70
sg94
I00
sg95
(lp1043
g1031
asbsg84
Nsg92
Nsg69
g1034
sbsg20
Nsg83
Nsg85
(dp1044
sg95
(lp1045
g1023
ag1016
ag1012
ag1002
ag999
ag989
ag985
ag1034
asg99
(lp1046
g1027
asg93
g70
sg82
Nsg84
Nsg101
I00
sg92
Nsg69
Nsg102
Nsg103
I00
sg104
Nsg94
I1
sg105
Nsg67
g106
sg107
g13
(g108
g23
Ntp1047
Rp1048
(dp1049
g112
Nsg113
((t(dp1050
tp1051
sbsg116
g1027
sg117
(lp1052
sg119
Nsbsg82
Nsg83
Nsg84
Nsg85
(dp1053
Vclass
p1054
(lp1055
Vday
p1056
asVrel
p1057
Vday
p1058
ssg92
g1020
sg93
g70
sg94
I00
sg95
(lp1059
g1020
asbsg84
Nsg92
g1016
sg69
g1023
sbsg84
g1023
sg92
g1012
sg69
g1027
sbsg20
g1002
sg67
Vsmall
p1060
sg69
g1027
sg82
Nsg83
Nsg84
g1016
sg85
(dp1061
sg92
g1009
sg93
g70
sg94
I00
sg95
(lp1062
g1009
asbsg20
Nsg67
Vabbr
p1063
sg69
g1012
sg82
Nsg83
Nsg84
Nsg85
(dp1064
Vclass
p1065
(lp1066
Vdtstart
p1067
asVrel
p1068
Vdtstart
p1069
sVtitle
p1070
g978
ssg92
g1006
sg93
g70
sg94
I00
sg95
(lp1071
g1006
asbsg84
Nsg92
g1002
sg69
g1009
sbsg84
g1012
sg92
g999
sg69
g1027
sbsg20
g989
sg67
Vsmall
p1072
sg69
g1027
sg82
Nsg83
Nsg84
g1002
sg85
(dp1073
sg92
g996
sg93
g70
sg94
I00
sg95
(lp1074
g996
asbsg20
Nsg67
Vabbr
p1075
sg69
g999
sg82
Nsg83
Nsg84
Nsg85
(dp1076
Vclass
p1077
(lp1078
Vdtend
p1079
asVrel
p1080
Vdtend
p1081
sVtitle
p1082
g975
ssg92
g993
sg93
g70
sg94
I00
sg95
(lp1083
g993
asbsg84
Nsg92
g989
sg69
g996
sbsg84
g999
sg92
g985
sg69
g1027
sbsg20
g1034
sg67
Vsmall
p1084
sg69
g1027
sg82
Nsg83
Nsg84
g989
sg85
(dp1085
Vclass
p1086
(lp1087
Vlocation
p1088
asVrel
p1089
Vlocation
p1090
ssg92
g982
sg93
g70
sg94
I00
sg95
(lp1091
g982
asbsg84
Nsg92
g1034
sg69
g985
sbsa(dp1092
g2
V2013-04-18T20:00:00-0500
p1093
sg4
VFused Glass Class with Crafty Sippers!
p1094
sg6
V$45 Supply Fee Per Student\u000aPre-Registration Required\u000aAges 12 and Up\u000aApril 18 at 6:00 pm \u000aIn the Forsyth Galleries\u000a\u000a\u000aFused glass is the art of designing glass pieces that will be fired in a kiln melting the glass together.  In this class you will chose different colored glass and create a design to form a 6x6 bowl.  You will learn the basic instructions on how to cut glass and use of all the tools which we will supply.  No experience is necessary.  Come prepared for fun and good food!\u000a\u000aSource\u000ahttp://calendar.tamu.edu/?&y=2013&m=04&d=18&eventdatetime_id=15404&
p1095
sg8
V2013-04-18T18:00:00-0500
p1096
sg10
Vhttp://calendar.tamu.edu/?&y=2013&m=04&d=18&eventdatetime_id=15404&
p1097
sg12
g13
(g14
g15
VForsyth Galleries Room:2nd Floor, MSC
p1098
tp1099
Rp1100
(dp1101
g20
Nsg21
g13
(g22
g23
Ntp1102
Rp1103
(dp1104
g27
I00
sg21
g13
(g14
g15
V | 
p1105
tp1106
Rp1107
(dp1108
g20
g1103
sg21
g13
(g14
g15
V8:00 pm
p1109
tp1110
Rp1111
(dp1112
g20
Nsg21
g13
(g22
g23
Ntp1113
Rp1114
(dp1115
g27
I00
sg21
g13
(g22
g23
Ntp1116
Rp1117
(dp1118
g27
I00
sg21
g13
(g14
g15
g42
tp1119
Rp1120
(dp1121
g20
g1117
sg21
g13
(g14
g15
V6:00 pm
p1122
tp1123
Rp1124
(dp1125
g20
Nsg21
g13
(g22
g23
Ntp1126
Rp1127
(dp1128
g27
I00
sg21
g13
(g22
g23
Ntp1129
Rp1130
(dp1131
g27
I00
sg21
g13
(g14
g15
V | 
p1132
tp1133
Rp1134
(dp1135
g20
g1130
sg21
g13
(g14
g15
VThursday, April 18th
p1136
tp1137
Rp1138
(dp1139
g20
Nsg21
g13
(g22
g23
Ntp1140
Rp1141
(dp1142
g27
I00
sg21
Nsg20
g1134
sg67
Vsmall
p1143
sg69
g13
(g70
g23
Ntp1144
Rp1145
(dp1146
g27
I00
sg21
g13
(g14
g15
V$45 Supply Fee Per Student\u000aPre-Registration Required\u000aAges 12 and Up\u000aApril 18 at 6:00 pm \u000aIn the Forsyth Galleries\u000a\u000a\u000aFused glass is the art of designing glass pieces that will be fired in a kiln melting the glass together.  In this class you will chose different colored glass and create a design to form a 6x6 bowl.  You will learn the basic instructions on how to cut glass and use of all the tools which we will supply.  No experience is necessary.  Come prepared for fun and good food!
p1147
tp1148
Rp1149
(dp1150
g20
Nsg21
g13
(g22
g23
Ntp1151
Rp1152
(dp1153
g27
I00
sg21
g1100
sg20
Nsg67
Vdiv
p1154
sg69
g1145
sg82
Nsg83
Nsg84
g1103
sg85
(dp1155
Vclass
p1156
(lp1157
Vsummary
p1158
asVrel
p1159
Vsummary
p1160
ssg92
g1149
sg93
g70
sg94
I00
sg95
(lp1161
g1149
asbsg84
Nsg92
Nsg69
g1152
sbsg20
Nsg83
Nsg85
(dp1162
sg95
(lp1163
g1141
ag1134
ag1130
ag1120
ag1117
ag1107
ag1103
ag1152
asg99
(lp1164
g1145
asg93
g70
sg82
Nsg84
Nsg101
I00
sg92
Nsg69
Nsg102
Nsg103
I00
sg104
Nsg94
I1
sg105
Nsg67
g106
sg107
g13
(g108
g23
Ntp1165
Rp1166
(dp1167
g112
Nsg113
((t(dp1168
tp1169
sbsg116
g1145
sg117
(lp1170
sg119
Nsbsg82
Nsg83
Nsg84
Nsg85
(dp1171
Vclass
p1172
(lp1173
Vday
p1174
asVrel
p1175
Vday
p1176
ssg92
g1138
sg93
g70
sg94
I00
sg95
(lp1177
g1138
asbsg84
Nsg92
g1134
sg69
g1141
sbsg84
g1141
sg92
g1130
sg69
g1145
sbsg20
g1120
sg67
Vsmall
p1178
sg69
g1145
sg82
Nsg83
Nsg84
g1134
sg85
(dp1179
sg92
g1127
sg93
g70
sg94
I00
sg95
(lp1180
g1127
asbsg20
Nsg67
Vabbr
p1181
sg69
g1130
sg82
Nsg83
Nsg84
Nsg85
(dp1182
Vclass
p1183
(lp1184
Vdtstart
p1185
asVrel
p1186
Vdtstart
p1187
sVtitle
p1188
g1096
ssg92
g1124
sg93
g70
sg94
I00
sg95
(lp1189
g1124
asbsg84
Nsg92
g1120
sg69
g1127
sbsg84
g1130
sg92
g1117
sg69
g1145
sbsg20
g1107
sg67
Vsmall
p1190
sg69
g1145
sg82
Nsg83
Nsg84
g1120
sg85
(dp1191
sg92
g1114
sg93
g70
sg94
I00
sg95
(lp1192
g1114
asbsg20
Nsg67
Vabbr
p1193
sg69
g1117
sg82
Nsg83
Nsg84
Nsg85
(dp1194
Vclass
p1195
(lp1196
Vdtend
p1197
asVrel
p1198
Vdtend
p1199
sVtitle
p1200
g1093
ssg92
g1111
sg93
g70
sg94
I00
sg95
(lp1201
g1111
asbsg84
Nsg92
g1107
sg69
g1114
sbsg84
g1117
sg92
g1103
sg69
g1145
sbsg20
g1152
sg67
Vsmall
p1202
sg69
g1145
sg82
Nsg83
Nsg84
g1107
sg85
(dp1203
Vclass
p1204
(lp1205
Vlocation
p1206
asVrel
p1207
Vlocation
p1208
ssg92
g1100
sg93
g70
sg94
I00
sg95
(lp1209
g1100
asbsg84
Nsg92
g1152
sg69
g1103
sbsa.