(lp0
(dp1
S'end'
p2
V2013-02-07T21:15:00-0600
p3
sS'Title'
p4
VFree Film Screening: Pitch Perfect
p5
sS'Content'
p6
ccopy_reg
_reconstructor
p7
(cbs4.element
NavigableString
p8
c__builtin__
unicode
p9
VThe critically acclaimed, hit 2012 comedy will be presented free of charge with refreshments by the Women's and Gender Studies Program in high definition and surround stereo.
p10
tp11
Rp12
(dp13
S'next_sibling'
p14
NsS'previous_element'
p15
g7
(cbs4.element
Tag
p16
c__builtin__
object
p17
Ntp18
Rp19
(dp20
S'can_be_empty_element'
p21
I00
sg15
g7
(g8
g9
VHarrington Education Center Classrooms (HECC) Room:209
p22
tp23
Rp24
(dp25
g14
Nsg15
g7
(g16
g17
Ntp26
Rp27
(dp28
g21
I00
sg15
g7
(g8
g9
V | 
p29
tp30
Rp31
(dp32
g14
g27
sg15
g7
(g8
g9
V9:15 pm
p33
tp34
Rp35
(dp36
g14
Nsg15
g7
(g16
g17
Ntp37
Rp38
(dp39
g21
I00
sg15
g7
(g16
g17
Ntp40
Rp41
(dp42
g21
I00
sg15
g7
(g8
g9
V-
p43
tp44
Rp45
(dp46
g14
g41
sg15
g7
(g8
g9
V7:00 pm
p47
tp48
Rp49
(dp50
g14
Nsg15
g7
(g16
g17
Ntp51
Rp52
(dp53
g21
I00
sg15
g7
(g16
g17
Ntp54
Rp55
(dp56
g21
I00
sg15
g7
(g8
g9
V | 
p57
tp58
Rp59
(dp60
g14
g55
sg15
g7
(g8
g9
VThursday, February 7th
p61
tp62
Rp63
(dp64
g14
Nsg15
g7
(g16
g17
Ntp65
Rp66
(dp67
g21
I00
sg15
g7
(g8
g9
VWomen's and Gender Studies Movie Night
p68
tp69
Rp70
(dp71
g14
Nsg15
g7
(g16
g17
Ntp72
Rp73
(dp74
g21
I00
sg15
Nsg14
g66
sS'name'
p75
Vdiv
p76
sS'parent'
p77
g7
(cbs4
BeautifulSoup
p78
g17
Ntp79
Rp80
(dp81
g21
I00
sg15
g12
sg14
NsS'prefix'
p82
NsS'attrs'
p83
(dp84
sS'contents'
p85
(lp86
g73
ag66
ag59
ag55
ag45
ag41
ag31
ag27
ag19
asS'tagStack'
p87
(lp88
g80
asS'parser_class'
p89
g78
sS'namespace'
p90
NsS'previous_sibling'
p91
NsS'contains_replacement_characters'
p92
I00
sS'next_element'
p93
Nsg77
NsS'declared_html_encoding'
p94
NsS'is_xml'
p95
I00
sS'parse_only'
p96
NsS'hidden'
p97
I1
sS'original_encoding'
p98
Nsg75
V[document]
p99
sS'builder'
p100
g7
(cbs4.builder._htmlparser
HTMLParserTreeBuilder
p101
g17
Ntp102
Rp103
(dp104
S'soup'
p105
NsS'parser_args'
p106
((t(dp107
tp108
sbsS'currentTag'
p109
g80
sS'currentData'
p110
(lp111
sS'markup'
p112
Nsbsg90
Nsg82
Nsg91
Nsg83
(dp113
Vclass
p114
(lp115
Vsubtitle
p116
asVrel
p117
Vsubtitle
p118
ssg93
g70
sg89
g78
sg97
I00
sg85
(lp119
g70
asbsg91
Nsg93
g66
sg77
g73
sbsg14
g59
sg75
Vsmall
p120
sg77
g80
sg90
Nsg82
Nsg91
g73
sg83
(dp121
Vclass
p122
(lp123
Vday
p124
asVrel
p125
Vday
p126
ssg93
g63
sg89
g78
sg97
I00
sg85
(lp127
g63
asbsg91
Nsg93
g59
sg77
g66
sbsg91
g66
sg93
g55
sg77
g80
sbsg14
g45
sg75
Vsmall
p128
sg77
g80
sg90
Nsg82
Nsg91
g59
sg83
(dp129
sg93
g52
sg89
g78
sg97
I00
sg85
(lp130
g52
asbsg14
Nsg75
Vabbr
p131
sg77
g55
sg90
Nsg82
Nsg91
Nsg83
(dp132
Vclass
p133
(lp134
Vdtstart
p135
asVrel
p136
Vdtstart
p137
sVtitle
p138
V2013-02-07T19:00:00-0600
p139
ssg93
g49
sg89
g78
sg97
I00
sg85
(lp140
g49
asbsg91
Nsg93
g45
sg77
g52
sbsg91
g55
sg93
g41
sg77
g80
sbsg14
g31
sg75
Vsmall
p141
sg77
g80
sg90
Nsg82
Nsg91
g45
sg83
(dp142
sg93
g38
sg89
g78
sg97
I00
sg85
(lp143
g38
asbsg14
Nsg75
Vabbr
p144
sg77
g41
sg90
Nsg82
Nsg91
Nsg83
(dp145
Vclass
p146
(lp147
Vdtend
p148
asVrel
p149
Vdtend
p150
sVtitle
p151
g3
ssg93
g35
sg89
g78
sg97
I00
sg85
(lp152
g35
asbsg91
Nsg93
g31
sg77
g38
sbsg91
g41
sg93
g27
sg77
g80
sbsg14
g19
sg75
Vsmall
p153
sg77
g80
sg90
Nsg82
Nsg91
g31
sg83
(dp154
Vclass
p155
(lp156
Vlocation
p157
asVrel
p158
Vlocation
p159
ssg93
g24
sg89
g78
sg97
I00
sg85
(lp160
g24
asbsg91
Nsg93
g19
sg77
g27
sbsg14
Nsg75
Vdiv
p161
sg77
g80
sg90
Nsg82
Nsg91
g27
sg83
(dp162
Vclass
p163
(lp164
Vsummary
p165
asVrel
p166
Vsummary
p167
ssg93
g12
sg89
g78
sg97
I00
sg85
(lp168
g12
asbsg91
Nsg93
Nsg77
g19
sbsS'start'
p169
g139
sS'link'
p170
Vhttp://calendar.tamu.edu/?&y=2013&m=02&d=07&eventdatetime_id=14579&
p171
sS'location'
p172
g24
sa(dp173
g2
V2013-03-01T22:15:00-0600
p174
sg4
VMSC OPAS Presents... Hooray For HollyWood
p175
sg6
g7
(g8
g9
VTake a nostalgic journey through the most popular movie musicals of the last 50 years. Featuring a cast of 14 wonderful singers and dancers, a 6 piece band live on stage, and over 300 costume changes, enjoy film clips of your favorite movies from Singing in the Rain and The Glenn Miller Story to Grease, Dirty Dancing, and Titanic. HOORAY FOR HOLLYWOOD sings and dances its way through over 30 songs including "Staying Alive", "All that Jazz", "Dancing Queen", "Jailhouse Rock", and many more! Watch as lights, camera, action unfolds LIVE ON STAGE!\u000a \u000aTo purchase tickets visit MSCOPAS.org or call 979-845-1234.
p176
tp177
Rp178
(dp179
g14
Nsg15
g7
(g16
g17
Ntp180
Rp181
(dp182
g21
I00
sg15
g7
(g8
g9
VRudder Theatre Complex Room:Auditorium
p183
tp184
Rp185
(dp186
g14
Nsg15
g7
(g16
g17
Ntp187
Rp188
(dp189
g21
I00
sg15
g7
(g8
g9
V | 
p190
tp191
Rp192
(dp193
g14
g188
sg15
g7
(g8
g9
V10:15 pm
p194
tp195
Rp196
(dp197
g14
Nsg15
g7
(g16
g17
Ntp198
Rp199
(dp200
g21
I00
sg15
g7
(g16
g17
Ntp201
Rp202
(dp203
g21
I00
sg15
g7
(g8
g9
g43
tp204
Rp205
(dp206
g14
g202
sg15
g7
(g8
g9
V7:30 pm
p207
tp208
Rp209
(dp210
g14
Nsg15
g7
(g16
g17
Ntp211
Rp212
(dp213
g21
I00
sg15
g7
(g16
g17
Ntp214
Rp215
(dp216
g21
I00
sg15
g7
(g8
g9
V | 
p217
tp218
Rp219
(dp220
g14
g215
sg15
g7
(g8
g9
VFriday, March 1st
p221
tp222
Rp223
(dp224
g14
Nsg15
g7
(g16
g17
Ntp225
Rp226
(dp227
g21
I00
sg15
g7
(g8
g9
VSponsored by: Blue Bell Creameries
p228
tp229
Rp230
(dp231
g14
Nsg15
g7
(g16
g17
Ntp232
Rp233
(dp234
g21
I00
sg15
Nsg14
g226
sg75
Vdiv
p235
sg77
g7
(g78
g17
Ntp236
Rp237
(dp238
g21
I00
sg15
g178
sg14
Nsg82
Nsg83
(dp239
sg85
(lp240
g233
ag226
ag219
ag215
ag205
ag202
ag192
ag188
ag181
asg87
(lp241
g237
asg89
g78
sg90
Nsg91
Nsg92
I00
sg93
Nsg77
Nsg94
Nsg95
I00
sg96
Nsg97
I1
sg98
Nsg75
g99
sg100
g7
(g101
g17
Ntp242
Rp243
(dp244
g105
Nsg106
((t(dp245
tp246
sbsg109
g237
sg110
(lp247
sg112
Nsbsg90
Nsg82
Nsg91
Nsg83
(dp248
Vclass
p249
(lp250
Vsubtitle
p251
asVrel
p252
Vsubtitle
p253
ssg93
g230
sg89
g78
sg97
I00
sg85
(lp254
g230
asbsg91
Nsg93
g226
sg77
g233
sbsg14
g219
sg75
Vsmall
p255
sg77
g237
sg90
Nsg82
Nsg91
g233
sg83
(dp256
Vclass
p257
(lp258
Vday
p259
asVrel
p260
Vday
p261
ssg93
g223
sg89
g78
sg97
I00
sg85
(lp262
g223
asbsg91
Nsg93
g219
sg77
g226
sbsg91
g226
sg93
g215
sg77
g237
sbsg14
g205
sg75
Vsmall
p263
sg77
g237
sg90
Nsg82
Nsg91
g219
sg83
(dp264
sg93
g212
sg89
g78
sg97
I00
sg85
(lp265
g212
asbsg14
Nsg75
Vabbr
p266
sg77
g215
sg90
Nsg82
Nsg91
Nsg83
(dp267
Vclass
p268
(lp269
Vdtstart
p270
asVrel
p271
Vdtstart
p272
sVtitle
p273
V2013-03-01T19:30:00-0600
p274
ssg93
g209
sg89
g78
sg97
I00
sg85
(lp275
g209
asbsg91
Nsg93
g205
sg77
g212
sbsg91
g215
sg93
g202
sg77
g237
sbsg14
g192
sg75
Vsmall
p276
sg77
g237
sg90
Nsg82
Nsg91
g205
sg83
(dp277
sg93
g199
sg89
g78
sg97
I00
sg85
(lp278
g199
asbsg14
Nsg75
Vabbr
p279
sg77
g202
sg90
Nsg82
Nsg91
Nsg83
(dp280
Vclass
p281
(lp282
Vdtend
p283
asVrel
p284
Vdtend
p285
sVtitle
p286
g174
ssg93
g196
sg89
g78
sg97
I00
sg85
(lp287
g196
asbsg91
Nsg93
g192
sg77
g199
sbsg91
g202
sg93
g188
sg77
g237
sbsg14
g181
sg75
Vsmall
p288
sg77
g237
sg90
Nsg82
Nsg91
g192
sg83
(dp289
Vclass
p290
(lp291
Vlocation
p292
asVrel
p293
Vlocation
p294
ssg93
g185
sg89
g78
sg97
I00
sg85
(lp295
g185
asbsg91
Nsg93
g181
sg77
g188
sbsg14
Nsg75
Vdiv
p296
sg77
g237
sg90
Nsg82
Nsg91
g188
sg83
(dp297
Vclass
p298
(lp299
Vsummary
p300
asVrel
p301
Vsummary
p302
ssg93
g178
sg89
g78
sg97
I00
sg85
(lp303
g178
asbsg91
Nsg93
Nsg77
g181
sbsg169
g274
sg170
Vhttp://calendar.tamu.edu/?&y=2013&m=03&d=01&eventdatetime_id=11372&
p304
sg172
g185
sa(dp305
g2
V2013-03-02T22:15:00-0600
p306
sg4
VMSC OPAS Presents... Hooray For HollyWood
p307
sg6
g7
(g8
g9
VTake a nostalgic journey through the most popular movie musicals of the last 50 years. Featuring a cast of 14 wonderful singers and dancers, a 6 piece band live on stage, and over 300 costume changes, enjoy film clips of your favorite movies from Singing in the Rain and The Glenn Miller Story to Grease, Dirty Dancing, and Titanic. HOORAY FOR HOLLYWOOD sings and dances its way through over 30 songs including "Staying Alive", "All that Jazz", "Dancing Queen", "Jailhouse Rock", and many more! Watch as lights, camera, action unfolds LIVE ON STAGE!\u000a \u000aTo purchase tickets visit MSCOPAS.org or call 979-845-1234.
p308
tp309
Rp310
(dp311
g14
Nsg15
g7
(g16
g17
Ntp312
Rp313
(dp314
g21
I00
sg15
g7
(g8
g9
VRudder Theatre Complex Room:Auditorium
p315
tp316
Rp317
(dp318
g14
Nsg15
g7
(g16
g17
Ntp319
Rp320
(dp321
g21
I00
sg15
g7
(g8
g9
V | 
p322
tp323
Rp324
(dp325
g14
g320
sg15
g7
(g8
g9
V10:15 pm
p326
tp327
Rp328
(dp329
g14
Nsg15
g7
(g16
g17
Ntp330
Rp331
(dp332
g21
I00
sg15
g7
(g16
g17
Ntp333
Rp334
(dp335
g21
I00
sg15
g7
(g8
g9
g43
tp336
Rp337
(dp338
g14
g334
sg15
g7
(g8
g9
V7:30 pm
p339
tp340
Rp341
(dp342
g14
Nsg15
g7
(g16
g17
Ntp343
Rp344
(dp345
g21
I00
sg15
g7
(g16
g17
Ntp346
Rp347
(dp348
g21
I00
sg15
g7
(g8
g9
V | 
p349
tp350
Rp351
(dp352
g14
g347
sg15
g7
(g8
g9
VSaturday, March 2nd
p353
tp354
Rp355
(dp356
g14
Nsg15
g7
(g16
g17
Ntp357
Rp358
(dp359
g21
I00
sg15
g7
(g8
g9
VSponsored by: Blue Bell Creameries
p360
tp361
Rp362
(dp363
g14
Nsg15
g7
(g16
g17
Ntp364
Rp365
(dp366
g21
I00
sg15
Nsg14
g358
sg75
Vdiv
p367
sg77
g7
(g78
g17
Ntp368
Rp369
(dp370
g21
I00
sg15
g310
sg14
Nsg82
Nsg83
(dp371
sg85
(lp372
g365
ag358
ag351
ag347
ag337
ag334
ag324
ag320
ag313
asg87
(lp373
g369
asg89
g78
sg90
Nsg91
Nsg92
I00
sg93
Nsg77
Nsg94
Nsg95
I00
sg96
Nsg97
I1
sg98
Nsg75
g99
sg100
g7
(g101
g17
Ntp374
Rp375
(dp376
g105
Nsg106
((t(dp377
tp378
sbsg109
g369
sg110
(lp379
sg112
Nsbsg90
Nsg82
Nsg91
Nsg83
(dp380
Vclass
p381
(lp382
Vsubtitle
p383
asVrel
p384
Vsubtitle
p385
ssg93
g362
sg89
g78
sg97
I00
sg85
(lp386
g362
asbsg91
Nsg93
g358
sg77
g365
sbsg14
g351
sg75
Vsmall
p387
sg77
g369
sg90
Nsg82
Nsg91
g365
sg83
(dp388
Vclass
p389
(lp390
Vday
p391
asVrel
p392
Vday
p393
ssg93
g355
sg89
g78
sg97
I00
sg85
(lp394
g355
asbsg91
Nsg93
g351
sg77
g358
sbsg91
g358
sg93
g347
sg77
g369
sbsg14
g337
sg75
Vsmall
p395
sg77
g369
sg90
Nsg82
Nsg91
g351
sg83
(dp396
sg93
g344
sg89
g78
sg97
I00
sg85
(lp397
g344
asbsg14
Nsg75
Vabbr
p398
sg77
g347
sg90
Nsg82
Nsg91
Nsg83
(dp399
Vclass
p400
(lp401
Vdtstart
p402
asVrel
p403
Vdtstart
p404
sVtitle
p405
V2013-03-02T19:30:00-0600
p406
ssg93
g341
sg89
g78
sg97
I00
sg85
(lp407
g341
asbsg91
Nsg93
g337
sg77
g344
sbsg91
g347
sg93
g334
sg77
g369
sbsg14
g324
sg75
Vsmall
p408
sg77
g369
sg90
Nsg82
Nsg91
g337
sg83
(dp409
sg93
g331
sg89
g78
sg97
I00
sg85
(lp410
g331
asbsg14
Nsg75
Vabbr
p411
sg77
g334
sg90
Nsg82
Nsg91
Nsg83
(dp412
Vclass
p413
(lp414
Vdtend
p415
asVrel
p416
Vdtend
p417
sVtitle
p418
g306
ssg93
g328
sg89
g78
sg97
I00
sg85
(lp419
g328
asbsg91
Nsg93
g324
sg77
g331
sbsg91
g334
sg93
g320
sg77
g369
sbsg14
g313
sg75
Vsmall
p420
sg77
g369
sg90
Nsg82
Nsg91
g324
sg83
(dp421
Vclass
p422
(lp423
Vlocation
p424
asVrel
p425
Vlocation
p426
ssg93
g317
sg89
g78
sg97
I00
sg85
(lp427
g317
asbsg91
Nsg93
g313
sg77
g320
sbsg14
Nsg75
Vdiv
p428
sg77
g369
sg90
Nsg82
Nsg91
g320
sg83
(dp429
Vclass
p430
(lp431
Vsummary
p432
asVrel
p433
Vsummary
p434
ssg93
g310
sg89
g78
sg97
I00
sg85
(lp435
g310
asbsg91
Nsg93
Nsg77
g313
sbsg169
g406
sg170
Vhttp://calendar.tamu.edu/?&y=2013&m=03&d=02&eventdatetime_id=11373&
p436
sg172
g317
sa.