(lp0
(dp1
S'end'
p2
V2013-02-07T21:45:00-0600
p3
sS'Title'
p4
VWGST Movie Night: Pitch Perfect
p5
sS'Content'
p6
ccopy_reg
_reconstructor
p7
(cbs4.element
NavigableString
p8
c__builtin__
unicode
p9
VThe Women's and Gender Studies Department will be hosting a free viewing of the hit movie "Pitch Perfect" for students on February 7. Refreshments will be served, so bring out your friends for a free night at the movies!
p10
tp11
Rp12
(dp13
S'next_sibling'
p14
NsS'previous_element'
p15
g7
(cbs4.element
Tag
p16
c__builtin__
object
p17
Ntp18
Rp19
(dp20
S'can_be_empty_element'
p21
I00
sg15
g7
(g8
g9
VHarrington Education Center Classrooms (HECC) Room:209
p22
tp23
Rp24
(dp25
g14
Nsg15
g7
(g16
g17
Ntp26
Rp27
(dp28
g21
I00
sg15
g7
(g8
g9
V | 
p29
tp30
Rp31
(dp32
g14
g27
sg15
g7
(g8
g9
V9:45 pm
p33
tp34
Rp35
(dp36
g14
Nsg15
g7
(g16
g17
Ntp37
Rp38
(dp39
g21
I00
sg15
g7
(g16
g17
Ntp40
Rp41
(dp42
g21
I00
sg15
g7
(g8
g9
V-
p43
tp44
Rp45
(dp46
g14
g41
sg15
g7
(g8
g9
V7:00 pm
p47
tp48
Rp49
(dp50
g14
Nsg15
g7
(g16
g17
Ntp51
Rp52
(dp53
g21
I00
sg15
g7
(g16
g17
Ntp54
Rp55
(dp56
g21
I00
sg15
g7
(g8
g9
V | 
p57
tp58
Rp59
(dp60
g14
g55
sg15
g7
(g8
g9
VThursday, February 7th
p61
tp62
Rp63
(dp64
g14
Nsg15
g7
(g16
g17
Ntp65
Rp66
(dp67
g21
I00
sg15
Nsg14
g59
sS'name'
p68
Vsmall
p69
sS'parent'
p70
g7
(cbs4
BeautifulSoup
p71
g17
Ntp72
Rp73
(dp74
g21
I00
sg15
g12
sg14
NsS'prefix'
p75
NsS'attrs'
p76
(dp77
sS'contents'
p78
(lp79
g66
ag59
ag55
ag45
ag41
ag31
ag27
ag19
asS'tagStack'
p80
(lp81
g73
asS'parser_class'
p82
g71
sS'namespace'
p83
NsS'previous_sibling'
p84
NsS'contains_replacement_characters'
p85
I00
sS'next_element'
p86
Nsg70
NsS'declared_html_encoding'
p87
NsS'is_xml'
p88
I00
sS'parse_only'
p89
NsS'hidden'
p90
I1
sS'original_encoding'
p91
Nsg68
V[document]
p92
sS'builder'
p93
g7
(cbs4.builder._htmlparser
HTMLParserTreeBuilder
p94
g17
Ntp95
Rp96
(dp97
S'soup'
p98
NsS'parser_args'
p99
((t(dp100
tp101
sbsS'currentTag'
p102
g73
sS'currentData'
p103
(lp104
sS'markup'
p105
Nsbsg83
Nsg75
Nsg84
Nsg76
(dp106
Vclass
p107
(lp108
Vday
p109
asVrel
p110
Vday
p111
ssg86
g63
sg82
g71
sg90
I00
sg78
(lp112
g63
asbsg84
Nsg86
g59
sg70
g66
sbsg84
g66
sg86
g55
sg70
g73
sbsg14
g45
sg68
Vsmall
p113
sg70
g73
sg83
Nsg75
Nsg84
g59
sg76
(dp114
sg86
g52
sg82
g71
sg90
I00
sg78
(lp115
g52
asbsg14
Nsg68
Vabbr
p116
sg70
g55
sg83
Nsg75
Nsg84
Nsg76
(dp117
Vclass
p118
(lp119
Vdtstart
p120
asVrel
p121
Vdtstart
p122
sVtitle
p123
V2013-02-07T19:00:00-0600
p124
ssg86
g49
sg82
g71
sg90
I00
sg78
(lp125
g49
asbsg84
Nsg86
g45
sg70
g52
sbsg84
g55
sg86
g41
sg70
g73
sbsg14
g31
sg68
Vsmall
p126
sg70
g73
sg83
Nsg75
Nsg84
g45
sg76
(dp127
sg86
g38
sg82
g71
sg90
I00
sg78
(lp128
g38
asbsg14
Nsg68
Vabbr
p129
sg70
g41
sg83
Nsg75
Nsg84
Nsg76
(dp130
Vclass
p131
(lp132
Vdtend
p133
asVrel
p134
Vdtend
p135
sVtitle
p136
g3
ssg86
g35
sg82
g71
sg90
I00
sg78
(lp137
g35
asbsg84
Nsg86
g31
sg70
g38
sbsg84
g41
sg86
g27
sg70
g73
sbsg14
g19
sg68
Vsmall
p138
sg70
g73
sg83
Nsg75
Nsg84
g31
sg76
(dp139
Vclass
p140
(lp141
Vlocation
p142
asVrel
p143
Vlocation
p144
ssg86
g24
sg82
g71
sg90
I00
sg78
(lp145
g24
asbsg84
Nsg86
g19
sg70
g27
sbsg14
Nsg68
Vdiv
p146
sg70
g73
sg83
Nsg75
Nsg84
g27
sg76
(dp147
Vclass
p148
(lp149
Vsummary
p150
asVrel
p151
Vsummary
p152
ssg86
g12
sg82
g71
sg90
I00
sg78
(lp153
g12
asbsg84
Nsg86
Nsg70
g19
sbsS'start'
p154
g124
sS'link'
p155
Vhttp://calendar.tamu.edu/?&y=2013&m=02&d=07&eventdatetime_id=14712&
p156
sS'location'
p157
g24
sa(dp158
g2
V2013-02-25T17:00:00-0600
p159
sg4
VRhetoric and Discourse Studies Working Group Meeting
p160
sg6
g7
(g8
g9
VThe first spring meeting of the Rhetoric and Discourse Studies Working Group/A&M Student Chapter of the RSA will convene February 25, Monday, at 3:15 in the LAAH English Department Special Events Room:  LAAH 453.  Beverages and light snacks will be served. Andrea Terry and Kristina Gutierez will be presenting their  current works in progress.
p161
tp162
Rp163
(dp164
g14
Nsg15
g7
(g16
g17
Ntp165
Rp166
(dp167
g21
I00
sg15
g7
(g8
g9
VLiberal Arts and Humanities Building (LAAH) Room:453
p168
tp169
Rp170
(dp171
g14
Nsg15
g7
(g16
g17
Ntp172
Rp173
(dp174
g21
I00
sg15
g7
(g8
g9
V | 
p175
tp176
Rp177
(dp178
g14
g173
sg15
g7
(g8
g9
V5:00 pm
p179
tp180
Rp181
(dp182
g14
Nsg15
g7
(g16
g17
Ntp183
Rp184
(dp185
g21
I00
sg15
g7
(g16
g17
Ntp186
Rp187
(dp188
g21
I00
sg15
g7
(g8
g9
g43
tp189
Rp190
(dp191
g14
g187
sg15
g7
(g8
g9
V3:15 pm
p192
tp193
Rp194
(dp195
g14
Nsg15
g7
(g16
g17
Ntp196
Rp197
(dp198
g21
I00
sg15
g7
(g16
g17
Ntp199
Rp200
(dp201
g21
I00
sg15
g7
(g8
g9
V | 
p202
tp203
Rp204
(dp205
g14
g200
sg15
g7
(g8
g9
VMonday, February 25th
p206
tp207
Rp208
(dp209
g14
Nsg15
g7
(g16
g17
Ntp210
Rp211
(dp212
g21
I00
sg15
Nsg14
g204
sg68
Vsmall
p213
sg70
g7
(g71
g17
Ntp214
Rp215
(dp216
g21
I00
sg15
g163
sg14
Nsg75
Nsg76
(dp217
sg78
(lp218
g211
ag204
ag200
ag190
ag187
ag177
ag173
ag166
asg80
(lp219
g215
asg82
g71
sg83
Nsg84
Nsg85
I00
sg86
Nsg70
Nsg87
Nsg88
I00
sg89
Nsg90
I1
sg91
Nsg68
g92
sg93
g7
(g94
g17
Ntp220
Rp221
(dp222
g98
Nsg99
((t(dp223
tp224
sbsg102
g215
sg103
(lp225
sg105
Nsbsg83
Nsg75
Nsg84
Nsg76
(dp226
Vclass
p227
(lp228
Vday
p229
asVrel
p230
Vday
p231
ssg86
g208
sg82
g71
sg90
I00
sg78
(lp232
g208
asbsg84
Nsg86
g204
sg70
g211
sbsg84
g211
sg86
g200
sg70
g215
sbsg14
g190
sg68
Vsmall
p233
sg70
g215
sg83
Nsg75
Nsg84
g204
sg76
(dp234
sg86
g197
sg82
g71
sg90
I00
sg78
(lp235
g197
asbsg14
Nsg68
Vabbr
p236
sg70
g200
sg83
Nsg75
Nsg84
Nsg76
(dp237
Vclass
p238
(lp239
Vdtstart
p240
asVrel
p241
Vdtstart
p242
sVtitle
p243
V2013-02-25T15:15:00-0600
p244
ssg86
g194
sg82
g71
sg90
I00
sg78
(lp245
g194
asbsg84
Nsg86
g190
sg70
g197
sbsg84
g200
sg86
g187
sg70
g215
sbsg14
g177
sg68
Vsmall
p246
sg70
g215
sg83
Nsg75
Nsg84
g190
sg76
(dp247
sg86
g184
sg82
g71
sg90
I00
sg78
(lp248
g184
asbsg14
Nsg68
Vabbr
p249
sg70
g187
sg83
Nsg75
Nsg84
Nsg76
(dp250
Vclass
p251
(lp252
Vdtend
p253
asVrel
p254
Vdtend
p255
sVtitle
p256
g159
ssg86
g181
sg82
g71
sg90
I00
sg78
(lp257
g181
asbsg84
Nsg86
g177
sg70
g184
sbsg84
g187
sg86
g173
sg70
g215
sbsg14
g166
sg68
Vsmall
p258
sg70
g215
sg83
Nsg75
Nsg84
g177
sg76
(dp259
Vclass
p260
(lp261
Vlocation
p262
asVrel
p263
Vlocation
p264
ssg86
g170
sg82
g71
sg90
I00
sg78
(lp265
g170
asbsg84
Nsg86
g166
sg70
g173
sbsg14
Nsg68
Vdiv
p266
sg70
g215
sg83
Nsg75
Nsg84
g173
sg76
(dp267
Vclass
p268
(lp269
Vsummary
p270
asVrel
p271
Vsummary
p272
ssg86
g163
sg82
g71
sg90
I00
sg78
(lp273
g163
asbsg84
Nsg86
Nsg70
g166
sbsg154
g244
sg155
Vhttp://calendar.tamu.edu/?&y=2013&m=02&d=25&eventdatetime_id=14924&
p274
sg157
g170
sa.