(lp0
(dp1
S'end'
p2
V2013-01-22T20:00:00-0600
p3
sS'Title'
p4
VArt Menagerie Reception honoring special guest Reveille VIII
p5
sS'Content'
p6
VPlease join us for a reception Tuesday, January 22, 2013 from 6:00 to 8:00, and meet our Special Guest, Reveille VIII! Please consider bringing dog or cat food or shelter items to donate to God\u2019s Little Creatures or Brazos Feral Cat Allies.\u000a\u000aSource\u000ahttp://calendar.tamu.edu/?&y=2013&m=01&d=22&eventdatetime_id=14200&
p7
sS'start'
p8
V2013-01-22T18:00:00-0600
p9
sS'link'
p10
Vhttp://calendar.tamu.edu/?&y=2013&m=01&d=22&eventdatetime_id=14200&
p11
sS'location'
p12
ccopy_reg
_reconstructor
p13
(cbs4.element
NavigableString
p14
c__builtin__
unicode
p15
VForsyth Galleries
p16
tp17
Rp18
(dp19
S'next_sibling'
p20
NsS'previous_element'
p21
g13
(cbs4.element
Tag
p22
c__builtin__
object
p23
Ntp24
Rp25
(dp26
S'can_be_empty_element'
p27
I00
sg21
g13
(g14
g15
V | 
p28
tp29
Rp30
(dp31
g20
g25
sg21
g13
(g14
g15
V8:00 pm
p32
tp33
Rp34
(dp35
g20
Nsg21
g13
(g22
g23
Ntp36
Rp37
(dp38
g27
I00
sg21
g13
(g22
g23
Ntp39
Rp40
(dp41
g27
I00
sg21
g13
(g14
g15
V-
p42
tp43
Rp44
(dp45
g20
g40
sg21
g13
(g14
g15
V6:00 pm
p46
tp47
Rp48
(dp49
g20
Nsg21
g13
(g22
g23
Ntp50
Rp51
(dp52
g27
I00
sg21
g13
(g22
g23
Ntp53
Rp54
(dp55
g27
I00
sg21
g13
(g14
g15
V | 
p56
tp57
Rp58
(dp59
g20
g54
sg21
g13
(g14
g15
VTuesday, January 22nd
p60
tp61
Rp62
(dp63
g20
Nsg21
g13
(g22
g23
Ntp64
Rp65
(dp66
g27
I00
sg21
g13
(g14
g15
VMeet and greet with Reveille!
p67
tp68
Rp69
(dp70
g20
Nsg21
g13
(g22
g23
Ntp71
Rp72
(dp73
g27
I00
sg21
Nsg20
g65
sS'name'
p74
Vdiv
p75
sS'parent'
p76
g13
(cbs4
BeautifulSoup
p77
g23
Ntp78
Rp79
(dp80
g27
I00
sg21
g13
(g14
g15
VPlease join us for a reception Tuesday, January 22, 2013 from 6:00 to 8:00, and meet our Special Guest, Reveille VIII! Please consider bringing dog or cat food or shelter items to donate to God\u2019s Little Creatures or Brazos Feral Cat Allies.
p81
tp82
Rp83
(dp84
g20
Nsg21
g13
(g22
g23
Ntp85
Rp86
(dp87
g27
I00
sg21
g18
sg20
Nsg74
Vdiv
p88
sg76
g79
sS'namespace'
p89
NsS'prefix'
p90
NsS'previous_sibling'
p91
g25
sS'attrs'
p92
(dp93
Vclass
p94
(lp95
Vsummary
p96
asVrel
p97
Vsummary
p98
ssS'next_element'
p99
g83
sS'parser_class'
p100
g77
sS'hidden'
p101
I00
sS'contents'
p102
(lp103
g83
asbsg91
Nsg99
Nsg76
g86
sbsg20
Nsg90
Nsg92
(dp104
sg102
(lp105
g72
ag65
ag58
ag54
ag44
ag40
ag30
ag25
ag86
asS'tagStack'
p106
(lp107
g79
asg100
g77
sg89
Nsg91
NsS'contains_replacement_characters'
p108
I00
sg99
Nsg76
NsS'declared_html_encoding'
p109
NsS'is_xml'
p110
I00
sS'parse_only'
p111
Nsg101
I1
sS'original_encoding'
p112
Nsg74
V[document]
p113
sS'builder'
p114
g13
(cbs4.builder._htmlparser
HTMLParserTreeBuilder
p115
g23
Ntp116
Rp117
(dp118
S'soup'
p119
NsS'parser_args'
p120
((t(dp121
tp122
sbsS'currentTag'
p123
g79
sS'currentData'
p124
(lp125
sS'markup'
p126
Nsbsg89
Nsg90
Nsg91
Nsg92
(dp127
Vclass
p128
(lp129
Vsubtitle
p130
asVrel
p131
Vsubtitle
p132
ssg99
g69
sg100
g77
sg101
I00
sg102
(lp133
g69
asbsg91
Nsg99
g65
sg76
g72
sbsg20
g58
sg74
Vsmall
p134
sg76
g79
sg89
Nsg90
Nsg91
g72
sg92
(dp135
Vclass
p136
(lp137
Vday
p138
asVrel
p139
Vday
p140
ssg99
g62
sg100
g77
sg101
I00
sg102
(lp141
g62
asbsg91
Nsg99
g58
sg76
g65
sbsg91
g65
sg99
g54
sg76
g79
sbsg20
g44
sg74
Vsmall
p142
sg76
g79
sg89
Nsg90
Nsg91
g58
sg92
(dp143
sg99
g51
sg100
g77
sg101
I00
sg102
(lp144
g51
asbsg20
Nsg74
Vabbr
p145
sg76
g54
sg89
Nsg90
Nsg91
Nsg92
(dp146
Vclass
p147
(lp148
Vdtstart
p149
asVrel
p150
Vdtstart
p151
sVtitle
p152
g9
ssg99
g48
sg100
g77
sg101
I00
sg102
(lp153
g48
asbsg91
Nsg99
g44
sg76
g51
sbsg91
g54
sg99
g40
sg76
g79
sbsg20
g30
sg74
Vsmall
p154
sg76
g79
sg89
Nsg90
Nsg91
g44
sg92
(dp155
sg99
g37
sg100
g77
sg101
I00
sg102
(lp156
g37
asbsg20
Nsg74
Vabbr
p157
sg76
g40
sg89
Nsg90
Nsg91
Nsg92
(dp158
Vclass
p159
(lp160
Vdtend
p161
asVrel
p162
Vdtend
p163
sVtitle
p164
g3
ssg99
g34
sg100
g77
sg101
I00
sg102
(lp165
g34
asbsg91
Nsg99
g30
sg76
g37
sbsg91
g40
sg99
g25
sg76
g79
sbsg20
g86
sg74
Vsmall
p166
sg76
g79
sg89
Nsg90
Nsg91
g30
sg92
(dp167
Vclass
p168
(lp169
Vlocation
p170
asVrel
p171
Vlocation
p172
ssg99
g18
sg100
g77
sg101
I00
sg102
(lp173
g18
asbsg91
Nsg99
g86
sg76
g25
sbsa(dp174
g2
V2013-01-24T17:30:00-0600
p175
sg4
V"Mandatory Ultrasound Viewing and the Politics of Vision"
p176
sg6
VRefreshments will be served at 3:30 p.m.\u000aLecture on reproductive ethics, personhood, and the law.\u000aEvent sponsored by the Women\u2019s and Gender Studies Program, the Melbern G. Glasscock Center for Humanities Research, the Department of Philosophy & the Department of Communication.\u000a\u000aSource\u000ahttp://calendar.tamu.edu/?&y=2013&m=01&d=24&eventdatetime_id=13244&
p177
sg8
V2013-01-24T16:30:00-0600
p178
sg10
Vhttp://calendar.tamu.edu/?&y=2013&m=01&d=24&eventdatetime_id=13244&
p179
sg12
g13
(g14
g15
VMelbern G. Glasscock History Building (HIST) Room:311
p180
tp181
Rp182
(dp183
g20
Nsg21
g13
(g22
g23
Ntp184
Rp185
(dp186
g27
I00
sg21
g13
(g14
g15
V | 
p187
tp188
Rp189
(dp190
g20
g185
sg21
g13
(g14
g15
V5:30 pm
p191
tp192
Rp193
(dp194
g20
Nsg21
g13
(g22
g23
Ntp195
Rp196
(dp197
g27
I00
sg21
g13
(g22
g23
Ntp198
Rp199
(dp200
g27
I00
sg21
g13
(g14
g15
g42
tp201
Rp202
(dp203
g20
g199
sg21
g13
(g14
g15
V4:30 pm
p204
tp205
Rp206
(dp207
g20
Nsg21
g13
(g22
g23
Ntp208
Rp209
(dp210
g27
I00
sg21
g13
(g22
g23
Ntp211
Rp212
(dp213
g27
I00
sg21
g13
(g14
g15
V | 
p214
tp215
Rp216
(dp217
g20
g212
sg21
g13
(g14
g15
VThursday, January 24th
p218
tp219
Rp220
(dp221
g20
Nsg21
g13
(g22
g23
Ntp222
Rp223
(dp224
g27
I00
sg21
g13
(g14
g15
VGlasscock Center Notable Lecture: Rebecca Kukla
p225
tp226
Rp227
(dp228
g20
Nsg21
g13
(g22
g23
Ntp229
Rp230
(dp231
g27
I00
sg21
Nsg20
g223
sg74
Vdiv
p232
sg76
g13
(g77
g23
Ntp233
Rp234
(dp235
g27
I00
sg21
g13
(g14
g15
VRefreshments will be served at 3:30 p.m.\u000aLecture on reproductive ethics, personhood, and the law.\u000aEvent sponsored by the Women\u2019s and Gender Studies Program, the Melbern G. Glasscock Center for Humanities Research, the Department of Philosophy & the Department of Communication.
p236
tp237
Rp238
(dp239
g20
Nsg21
g13
(g22
g23
Ntp240
Rp241
(dp242
g27
I00
sg21
g182
sg20
Nsg74
Vdiv
p243
sg76
g234
sg89
Nsg90
Nsg91
g185
sg92
(dp244
Vclass
p245
(lp246
Vsummary
p247
asVrel
p248
Vsummary
p249
ssg99
g238
sg100
g77
sg101
I00
sg102
(lp250
g238
asbsg91
Nsg99
Nsg76
g241
sbsg20
Nsg90
Nsg92
(dp251
sg102
(lp252
g230
ag223
ag216
ag212
ag202
ag199
ag189
ag185
ag241
asg106
(lp253
g234
asg100
g77
sg89
Nsg91
Nsg108
I00
sg99
Nsg76
Nsg109
Nsg110
I00
sg111
Nsg101
I1
sg112
Nsg74
g113
sg114
g13
(g115
g23
Ntp254
Rp255
(dp256
g119
Nsg120
((t(dp257
tp258
sbsg123
g234
sg124
(lp259
sg126
Nsbsg89
Nsg90
Nsg91
Nsg92
(dp260
Vclass
p261
(lp262
Vsubtitle
p263
asVrel
p264
Vsubtitle
p265
ssg99
g227
sg100
g77
sg101
I00
sg102
(lp266
g227
asbsg91
Nsg99
g223
sg76
g230
sbsg20
g216
sg74
Vsmall
p267
sg76
g234
sg89
Nsg90
Nsg91
g230
sg92
(dp268
Vclass
p269
(lp270
Vday
p271
asVrel
p272
Vday
p273
ssg99
g220
sg100
g77
sg101
I00
sg102
(lp274
g220
asbsg91
Nsg99
g216
sg76
g223
sbsg91
g223
sg99
g212
sg76
g234
sbsg20
g202
sg74
Vsmall
p275
sg76
g234
sg89
Nsg90
Nsg91
g216
sg92
(dp276
sg99
g209
sg100
g77
sg101
I00
sg102
(lp277
g209
asbsg20
Nsg74
Vabbr
p278
sg76
g212
sg89
Nsg90
Nsg91
Nsg92
(dp279
Vclass
p280
(lp281
Vdtstart
p282
asVrel
p283
Vdtstart
p284
sVtitle
p285
g178
ssg99
g206
sg100
g77
sg101
I00
sg102
(lp286
g206
asbsg91
Nsg99
g202
sg76
g209
sbsg91
g212
sg99
g199
sg76
g234
sbsg20
g189
sg74
Vsmall
p287
sg76
g234
sg89
Nsg90
Nsg91
g202
sg92
(dp288
sg99
g196
sg100
g77
sg101
I00
sg102
(lp289
g196
asbsg20
Nsg74
Vabbr
p290
sg76
g199
sg89
Nsg90
Nsg91
Nsg92
(dp291
Vclass
p292
(lp293
Vdtend
p294
asVrel
p295
Vdtend
p296
sVtitle
p297
g175
ssg99
g193
sg100
g77
sg101
I00
sg102
(lp298
g193
asbsg91
Nsg99
g189
sg76
g196
sbsg91
g199
sg99
g185
sg76
g234
sbsg20
g241
sg74
Vsmall
p299
sg76
g234
sg89
Nsg90
Nsg91
g189
sg92
(dp300
Vclass
p301
(lp302
Vlocation
p303
asVrel
p304
Vlocation
p305
ssg99
g182
sg100
g77
sg101
I00
sg102
(lp306
g182
asbsg91
Nsg99
g241
sg76
g185
sbsa(dp307
g2
V2013-01-30T16:30:00-0600
p308
sg4
VAFST, FILM, JOUR, RELS, and WGST Open House
p309
sg6
VThe Africana Studies, Film Studies, Journalism Studies, Religious Studies, and Women\u2019s and Gender Studies Programs will be hosting an Open House on Wednesday, January 30, 2013, from 3:00 p.m. to 4:30 p.m., in Bolton Hall 314, refreshments served.  We would like to invite everyone to drop by and visit for a while.\u000a\u000aSource\u000ahttp://calendar.tamu.edu/?&y=2013&m=01&d=30&eventdatetime_id=14539&
p310
sg8
V2013-01-30T15:00:00-0600
p311
sg10
Vhttp://calendar.tamu.edu/?&y=2013&m=01&d=30&eventdatetime_id=14539&
p312
sg12
g13
(g14
g15
VBolton Hall (BLTN)
p313
tp314
Rp315
(dp316
g20
Nsg21
g13
(g22
g23
Ntp317
Rp318
(dp319
g27
I00
sg21
g13
(g14
g15
V | 
p320
tp321
Rp322
(dp323
g20
g318
sg21
g13
(g14
g15
V4:30 pm
p324
tp325
Rp326
(dp327
g20
Nsg21
g13
(g22
g23
Ntp328
Rp329
(dp330
g27
I00
sg21
g13
(g22
g23
Ntp331
Rp332
(dp333
g27
I00
sg21
g13
(g14
g15
g42
tp334
Rp335
(dp336
g20
g332
sg21
g13
(g14
g15
V3:00 pm
p337
tp338
Rp339
(dp340
g20
Nsg21
g13
(g22
g23
Ntp341
Rp342
(dp343
g27
I00
sg21
g13
(g22
g23
Ntp344
Rp345
(dp346
g27
I00
sg21
g13
(g14
g15
V | 
p347
tp348
Rp349
(dp350
g20
g345
sg21
g13
(g14
g15
VWednesday, January 30th
p351
tp352
Rp353
(dp354
g20
Nsg21
g13
(g22
g23
Ntp355
Rp356
(dp357
g27
I00
sg21
Nsg20
g349
sg74
Vsmall
p358
sg76
g13
(g77
g23
Ntp359
Rp360
(dp361
g27
I00
sg21
g13
(g14
g15
VThe Africana Studies, Film Studies, Journalism Studies, Religious Studies, and Women\u2019s and Gender Studies Programs will be hosting an Open House on Wednesday, January 30, 2013, from 3:00 p.m. to 4:30 p.m., in Bolton Hall 314, refreshments served.  We would like to invite everyone to drop by and visit for a while.
p362
tp363
Rp364
(dp365
g20
Nsg21
g13
(g22
g23
Ntp366
Rp367
(dp368
g27
I00
sg21
g315
sg20
Nsg74
Vdiv
p369
sg76
g360
sg89
Nsg90
Nsg91
g318
sg92
(dp370
Vclass
p371
(lp372
Vsummary
p373
asVrel
p374
Vsummary
p375
ssg99
g364
sg100
g77
sg101
I00
sg102
(lp376
g364
asbsg91
Nsg99
Nsg76
g367
sbsg20
Nsg90
Nsg92
(dp377
sg102
(lp378
g356
ag349
ag345
ag335
ag332
ag322
ag318
ag367
asg106
(lp379
g360
asg100
g77
sg89
Nsg91
Nsg108
I00
sg99
Nsg76
Nsg109
Nsg110
I00
sg111
Nsg101
I1
sg112
Nsg74
g113
sg114
g13
(g115
g23
Ntp380
Rp381
(dp382
g119
Nsg120
((t(dp383
tp384
sbsg123
g360
sg124
(lp385
sg126
Nsbsg89
Nsg90
Nsg91
Nsg92
(dp386
Vclass
p387
(lp388
Vday
p389
asVrel
p390
Vday
p391
ssg99
g353
sg100
g77
sg101
I00
sg102
(lp392
g353
asbsg91
Nsg99
g349
sg76
g356
sbsg91
g356
sg99
g345
sg76
g360
sbsg20
g335
sg74
Vsmall
p393
sg76
g360
sg89
Nsg90
Nsg91
g349
sg92
(dp394
sg99
g342
sg100
g77
sg101
I00
sg102
(lp395
g342
asbsg20
Nsg74
Vabbr
p396
sg76
g345
sg89
Nsg90
Nsg91
Nsg92
(dp397
Vclass
p398
(lp399
Vdtstart
p400
asVrel
p401
Vdtstart
p402
sVtitle
p403
g311
ssg99
g339
sg100
g77
sg101
I00
sg102
(lp404
g339
asbsg91
Nsg99
g335
sg76
g342
sbsg91
g345
sg99
g332
sg76
g360
sbsg20
g322
sg74
Vsmall
p405
sg76
g360
sg89
Nsg90
Nsg91
g335
sg92
(dp406
sg99
g329
sg100
g77
sg101
I00
sg102
(lp407
g329
asbsg20
Nsg74
Vabbr
p408
sg76
g332
sg89
Nsg90
Nsg91
Nsg92
(dp409
Vclass
p410
(lp411
Vdtend
p412
asVrel
p413
Vdtend
p414
sVtitle
p415
g308
ssg99
g326
sg100
g77
sg101
I00
sg102
(lp416
g326
asbsg91
Nsg99
g322
sg76
g329
sbsg91
g332
sg99
g318
sg76
g360
sbsg20
g367
sg74
Vsmall
p417
sg76
g360
sg89
Nsg90
Nsg91
g322
sg92
(dp418
Vclass
p419
(lp420
Vlocation
p421
asVrel
p422
Vlocation
p423
ssg99
g315
sg100
g77
sg101
I00
sg102
(lp424
g315
asbsg91
Nsg99
g367
sg76
g318
sbsa(dp425
g2
V2013-02-07T21:45:00-0600
p426
sg4
VWGST Movie Night: Pitch Perfect
p427
sg6
VThe Women's and Gender Studies Department will be hosting a free viewing of the hit movie "Pitch Perfect" for students on February 7. Refreshments will be served, so bring out your friends for a free night at the movies!\u000a\u000aSource\u000ahttp://calendar.tamu.edu/?&y=2013&m=02&d=07&eventdatetime_id=14712&
p428
sg8
V2013-02-07T19:00:00-0600
p429
sg10
Vhttp://calendar.tamu.edu/?&y=2013&m=02&d=07&eventdatetime_id=14712&
p430
sg12
g13
(g14
g15
VHarrington Education Center Classrooms (HECC) Room:209
p431
tp432
Rp433
(dp434
g20
Nsg21
g13
(g22
g23
Ntp435
Rp436
(dp437
g27
I00
sg21
g13
(g14
g15
V | 
p438
tp439
Rp440
(dp441
g20
g436
sg21
g13
(g14
g15
V9:45 pm
p442
tp443
Rp444
(dp445
g20
Nsg21
g13
(g22
g23
Ntp446
Rp447
(dp448
g27
I00
sg21
g13
(g22
g23
Ntp449
Rp450
(dp451
g27
I00
sg21
g13
(g14
g15
g42
tp452
Rp453
(dp454
g20
g450
sg21
g13
(g14
g15
V7:00 pm
p455
tp456
Rp457
(dp458
g20
Nsg21
g13
(g22
g23
Ntp459
Rp460
(dp461
g27
I00
sg21
g13
(g22
g23
Ntp462
Rp463
(dp464
g27
I00
sg21
g13
(g14
g15
V | 
p465
tp466
Rp467
(dp468
g20
g463
sg21
g13
(g14
g15
VThursday, February 7th
p469
tp470
Rp471
(dp472
g20
Nsg21
g13
(g22
g23
Ntp473
Rp474
(dp475
g27
I00
sg21
Nsg20
g467
sg74
Vsmall
p476
sg76
g13
(g77
g23
Ntp477
Rp478
(dp479
g27
I00
sg21
g13
(g14
g15
VThe Women's and Gender Studies Department will be hosting a free viewing of the hit movie "Pitch Perfect" for students on February 7. Refreshments will be served, so bring out your friends for a free night at the movies!
p480
tp481
Rp482
(dp483
g20
Nsg21
g13
(g22
g23
Ntp484
Rp485
(dp486
g27
I00
sg21
g433
sg20
Nsg74
Vdiv
p487
sg76
g478
sg89
Nsg90
Nsg91
g436
sg92
(dp488
Vclass
p489
(lp490
Vsummary
p491
asVrel
p492
Vsummary
p493
ssg99
g482
sg100
g77
sg101
I00
sg102
(lp494
g482
asbsg91
Nsg99
Nsg76
g485
sbsg20
Nsg90
Nsg92
(dp495
sg102
(lp496
g474
ag467
ag463
ag453
ag450
ag440
ag436
ag485
asg106
(lp497
g478
asg100
g77
sg89
Nsg91
Nsg108
I00
sg99
Nsg76
Nsg109
Nsg110
I00
sg111
Nsg101
I1
sg112
Nsg74
g113
sg114
g13
(g115
g23
Ntp498
Rp499
(dp500
g119
Nsg120
((t(dp501
tp502
sbsg123
g478
sg124
(lp503
sg126
Nsbsg89
Nsg90
Nsg91
Nsg92
(dp504
Vclass
p505
(lp506
Vday
p507
asVrel
p508
Vday
p509
ssg99
g471
sg100
g77
sg101
I00
sg102
(lp510
g471
asbsg91
Nsg99
g467
sg76
g474
sbsg91
g474
sg99
g463
sg76
g478
sbsg20
g453
sg74
Vsmall
p511
sg76
g478
sg89
Nsg90
Nsg91
g467
sg92
(dp512
sg99
g460
sg100
g77
sg101
I00
sg102
(lp513
g460
asbsg20
Nsg74
Vabbr
p514
sg76
g463
sg89
Nsg90
Nsg91
Nsg92
(dp515
Vclass
p516
(lp517
Vdtstart
p518
asVrel
p519
Vdtstart
p520
sVtitle
p521
g429
ssg99
g457
sg100
g77
sg101
I00
sg102
(lp522
g457
asbsg91
Nsg99
g453
sg76
g460
sbsg91
g463
sg99
g450
sg76
g478
sbsg20
g440
sg74
Vsmall
p523
sg76
g478
sg89
Nsg90
Nsg91
g453
sg92
(dp524
sg99
g447
sg100
g77
sg101
I00
sg102
(lp525
g447
asbsg20
Nsg74
Vabbr
p526
sg76
g450
sg89
Nsg90
Nsg91
Nsg92
(dp527
Vclass
p528
(lp529
Vdtend
p530
asVrel
p531
Vdtend
p532
sVtitle
p533
g426
ssg99
g444
sg100
g77
sg101
I00
sg102
(lp534
g444
asbsg91
Nsg99
g440
sg76
g447
sbsg91
g450
sg99
g436
sg76
g478
sbsg20
g485
sg74
Vsmall
p535
sg76
g478
sg89
Nsg90
Nsg91
g440
sg92
(dp536
Vclass
p537
(lp538
Vlocation
p539
asVrel
p540
Vlocation
p541
ssg99
g433
sg100
g77
sg101
I00
sg102
(lp542
g433
asbsg91
Nsg99
g485
sg76
g436
sbsa(dp543
g2
V2013-02-25T17:00:00-0600
p544
sg4
VRhetoric and Discourse Studies Working Group Meeting
p545
sg6
VThe first spring meeting of the Rhetoric and Discourse Studies Working Group/A&M Student Chapter of the RSA will convene February 25, Monday, at 3:15 in the LAAH English Department Special Events Room:  LAAH 453.  Beverages and light snacks will be served. Andrea Terry and Kristina Gutierez will be presenting their  current works in progress.\u000a\u000aSource\u000ahttp://calendar.tamu.edu/?&y=2013&m=02&d=25&eventdatetime_id=14924&
p546
sg8
V2013-02-25T15:15:00-0600
p547
sg10
Vhttp://calendar.tamu.edu/?&y=2013&m=02&d=25&eventdatetime_id=14924&
p548
sg12
g13
(g14
g15
VLiberal Arts and Humanities Building (LAAH) Room:453
p549
tp550
Rp551
(dp552
g20
Nsg21
g13
(g22
g23
Ntp553
Rp554
(dp555
g27
I00
sg21
g13
(g14
g15
V | 
p556
tp557
Rp558
(dp559
g20
g554
sg21
g13
(g14
g15
V5:00 pm
p560
tp561
Rp562
(dp563
g20
Nsg21
g13
(g22
g23
Ntp564
Rp565
(dp566
g27
I00
sg21
g13
(g22
g23
Ntp567
Rp568
(dp569
g27
I00
sg21
g13
(g14
g15
g42
tp570
Rp571
(dp572
g20
g568
sg21
g13
(g14
g15
V3:15 pm
p573
tp574
Rp575
(dp576
g20
Nsg21
g13
(g22
g23
Ntp577
Rp578
(dp579
g27
I00
sg21
g13
(g22
g23
Ntp580
Rp581
(dp582
g27
I00
sg21
g13
(g14
g15
V | 
p583
tp584
Rp585
(dp586
g20
g581
sg21
g13
(g14
g15
VMonday, February 25th
p587
tp588
Rp589
(dp590
g20
Nsg21
g13
(g22
g23
Ntp591
Rp592
(dp593
g27
I00
sg21
Nsg20
g585
sg74
Vsmall
p594
sg76
g13
(g77
g23
Ntp595
Rp596
(dp597
g27
I00
sg21
g13
(g14
g15
VThe first spring meeting of the Rhetoric and Discourse Studies Working Group/A&M Student Chapter of the RSA will convene February 25, Monday, at 3:15 in the LAAH English Department Special Events Room:  LAAH 453.  Beverages and light snacks will be served. Andrea Terry and Kristina Gutierez will be presenting their  current works in progress.
p598
tp599
Rp600
(dp601
g20
Nsg21
g13
(g22
g23
Ntp602
Rp603
(dp604
g27
I00
sg21
g551
sg20
Nsg74
Vdiv
p605
sg76
g596
sg89
Nsg90
Nsg91
g554
sg92
(dp606
Vclass
p607
(lp608
Vsummary
p609
asVrel
p610
Vsummary
p611
ssg99
g600
sg100
g77
sg101
I00
sg102
(lp612
g600
asbsg91
Nsg99
Nsg76
g603
sbsg20
Nsg90
Nsg92
(dp613
sg102
(lp614
g592
ag585
ag581
ag571
ag568
ag558
ag554
ag603
asg106
(lp615
g596
asg100
g77
sg89
Nsg91
Nsg108
I00
sg99
Nsg76
Nsg109
Nsg110
I00
sg111
Nsg101
I1
sg112
Nsg74
g113
sg114
g13
(g115
g23
Ntp616
Rp617
(dp618
g119
Nsg120
((t(dp619
tp620
sbsg123
g596
sg124
(lp621
sg126
Nsbsg89
Nsg90
Nsg91
Nsg92
(dp622
Vclass
p623
(lp624
Vday
p625
asVrel
p626
Vday
p627
ssg99
g589
sg100
g77
sg101
I00
sg102
(lp628
g589
asbsg91
Nsg99
g585
sg76
g592
sbsg91
g592
sg99
g581
sg76
g596
sbsg20
g571
sg74
Vsmall
p629
sg76
g596
sg89
Nsg90
Nsg91
g585
sg92
(dp630
sg99
g578
sg100
g77
sg101
I00
sg102
(lp631
g578
asbsg20
Nsg74
Vabbr
p632
sg76
g581
sg89
Nsg90
Nsg91
Nsg92
(dp633
Vclass
p634
(lp635
Vdtstart
p636
asVrel
p637
Vdtstart
p638
sVtitle
p639
g547
ssg99
g575
sg100
g77
sg101
I00
sg102
(lp640
g575
asbsg91
Nsg99
g571
sg76
g578
sbsg91
g581
sg99
g568
sg76
g596
sbsg20
g558
sg74
Vsmall
p641
sg76
g596
sg89
Nsg90
Nsg91
g571
sg92
(dp642
sg99
g565
sg100
g77
sg101
I00
sg102
(lp643
g565
asbsg20
Nsg74
Vabbr
p644
sg76
g568
sg89
Nsg90
Nsg91
Nsg92
(dp645
Vclass
p646
(lp647
Vdtend
p648
asVrel
p649
Vdtend
p650
sVtitle
p651
g544
ssg99
g562
sg100
g77
sg101
I00
sg102
(lp652
g562
asbsg91
Nsg99
g558
sg76
g565
sbsg91
g568
sg99
g554
sg76
g596
sbsg20
g603
sg74
Vsmall
p653
sg76
g596
sg89
Nsg90
Nsg91
g558
sg92
(dp654
Vclass
p655
(lp656
Vlocation
p657
asVrel
p658
Vlocation
p659
ssg99
g551
sg100
g77
sg101
I00
sg102
(lp660
g551
asbsg91
Nsg99
g603
sg76
g554
sbsa(dp661
g2
V2013-03-18T12:30:00-0500
p662
sg4
VCritica
p663
sg6
VJoin us for a preliminary discussion about a collaborative Childhood Studies / Digital Humanities project. Prospective graduate students of the English doctoral program will be visiting to find out more about Childhood Studies at TAMU. Light lunch will be served.\u000a\u000aSource\u000ahttp://calendar.tamu.edu/?&y=2013&m=03&d=18&eventdatetime_id=15136&
p664
sg8
V2013-03-18T11:30:00-0500
p665
sg10
Vhttp://calendar.tamu.edu/?&y=2013&m=03&d=18&eventdatetime_id=15136&
p666
sg12
g13
(g14
g15
VLiberal Arts and Humanities Building (LAAH) Room:535
p667
tp668
Rp669
(dp670
g20
Nsg21
g13
(g22
g23
Ntp671
Rp672
(dp673
g27
I00
sg21
g13
(g14
g15
V | 
p674
tp675
Rp676
(dp677
g20
g672
sg21
g13
(g14
g15
V12:30 pm
p678
tp679
Rp680
(dp681
g20
Nsg21
g13
(g22
g23
Ntp682
Rp683
(dp684
g27
I00
sg21
g13
(g22
g23
Ntp685
Rp686
(dp687
g27
I00
sg21
g13
(g14
g15
g42
tp688
Rp689
(dp690
g20
g686
sg21
g13
(g14
g15
V11:30 am
p691
tp692
Rp693
(dp694
g20
Nsg21
g13
(g22
g23
Ntp695
Rp696
(dp697
g27
I00
sg21
g13
(g22
g23
Ntp698
Rp699
(dp700
g27
I00
sg21
g13
(g14
g15
V | 
p701
tp702
Rp703
(dp704
g20
g699
sg21
g13
(g14
g15
VMonday, March 18th
p705
tp706
Rp707
(dp708
g20
Nsg21
g13
(g22
g23
Ntp709
Rp710
(dp711
g27
I00
sg21
Nsg20
g703
sg74
Vsmall
p712
sg76
g13
(g77
g23
Ntp713
Rp714
(dp715
g27
I00
sg21
g13
(g14
g15
VJoin us for a preliminary discussion about a collaborative Childhood Studies / Digital Humanities project. Prospective graduate students of the English doctoral program will be visiting to find out more about Childhood Studies at TAMU. Light lunch will be served.
p716
tp717
Rp718
(dp719
g20
Nsg21
g13
(g22
g23
Ntp720
Rp721
(dp722
g27
I00
sg21
g669
sg20
Nsg74
Vdiv
p723
sg76
g714
sg89
Nsg90
Nsg91
g672
sg92
(dp724
Vclass
p725
(lp726
Vsummary
p727
asVrel
p728
Vsummary
p729
ssg99
g718
sg100
g77
sg101
I00
sg102
(lp730
g718
asbsg91
Nsg99
Nsg76
g721
sbsg20
Nsg90
Nsg92
(dp731
sg102
(lp732
g710
ag703
ag699
ag689
ag686
ag676
ag672
ag721
asg106
(lp733
g714
asg100
g77
sg89
Nsg91
Nsg108
I00
sg99
Nsg76
Nsg109
Nsg110
I00
sg111
Nsg101
I1
sg112
Nsg74
g113
sg114
g13
(g115
g23
Ntp734
Rp735
(dp736
g119
Nsg120
((t(dp737
tp738
sbsg123
g714
sg124
(lp739
sg126
Nsbsg89
Nsg90
Nsg91
Nsg92
(dp740
Vclass
p741
(lp742
Vday
p743
asVrel
p744
Vday
p745
ssg99
g707
sg100
g77
sg101
I00
sg102
(lp746
g707
asbsg91
Nsg99
g703
sg76
g710
sbsg91
g710
sg99
g699
sg76
g714
sbsg20
g689
sg74
Vsmall
p747
sg76
g714
sg89
Nsg90
Nsg91
g703
sg92
(dp748
sg99
g696
sg100
g77
sg101
I00
sg102
(lp749
g696
asbsg20
Nsg74
Vabbr
p750
sg76
g699
sg89
Nsg90
Nsg91
Nsg92
(dp751
Vclass
p752
(lp753
Vdtstart
p754
asVrel
p755
Vdtstart
p756
sVtitle
p757
g665
ssg99
g693
sg100
g77
sg101
I00
sg102
(lp758
g693
asbsg91
Nsg99
g689
sg76
g696
sbsg91
g699
sg99
g686
sg76
g714
sbsg20
g676
sg74
Vsmall
p759
sg76
g714
sg89
Nsg90
Nsg91
g689
sg92
(dp760
sg99
g683
sg100
g77
sg101
I00
sg102
(lp761
g683
asbsg20
Nsg74
Vabbr
p762
sg76
g686
sg89
Nsg90
Nsg91
Nsg92
(dp763
Vclass
p764
(lp765
Vdtend
p766
asVrel
p767
Vdtend
p768
sVtitle
p769
g662
ssg99
g680
sg100
g77
sg101
I00
sg102
(lp770
g680
asbsg91
Nsg99
g676
sg76
g683
sbsg91
g686
sg99
g672
sg76
g714
sbsg20
g721
sg74
Vsmall
p771
sg76
g714
sg89
Nsg90
Nsg91
g676
sg92
(dp772
Vclass
p773
(lp774
Vlocation
p775
asVrel
p776
Vlocation
p777
ssg99
g669
sg100
g77
sg101
I00
sg102
(lp778
g669
asbsg91
Nsg99
g721
sg76
g672
sbsa(dp779
g2
V2013-07-09T00:00:00-0500
p780
sg4
VAnnual Parking Permit Registration
p781
sg6
VRegister online April 10 - July 9 at transport.tamu.edu. There is no advantage to registering earlier in the registration process; however, registrations must be completed by July 9 to be assigned a permit with the first distribution. Registrations completed after the July 9 deadline will be assigned on a first come, first served basis based on the remaining availability.\u000a\u000aSource\u000ahttp://calendar.tamu.edu/?&y=2013&m=04&d=10&eventdatetime_id=15170&
p782
sg8
V2013-04-10T00:00:00-0500
p783
sg10
Vhttp://calendar.tamu.edu/?&y=2013&m=04&d=10&eventdatetime_id=15170&
p784
sg12
g13
(g14
g15
V Texas A&M University
p785
tp786
Rp787
(dp788
g20
Nsg21
g13
(g22
g23
Ntp789
Rp790
(dp791
g27
I00
sg21
g13
(g14
g15
V | 
p792
tp793
Rp794
(dp795
g20
g790
sg21
g13
(g14
g15
V12:00 am
p796
tp797
Rp798
(dp799
g20
Nsg21
g13
(g22
g23
Ntp800
Rp801
(dp802
g27
I00
sg21
g13
(g22
g23
Ntp803
Rp804
(dp805
g27
I00
sg21
g13
(g14
g15
g42
tp806
Rp807
(dp808
g20
g804
sg21
g13
(g14
g15
VAll day
p809
tp810
Rp811
(dp812
g20
Nsg21
g13
(g22
g23
Ntp813
Rp814
(dp815
g27
I00
sg21
g13
(g22
g23
Ntp816
Rp817
(dp818
g27
I00
sg21
g13
(g14
g15
V | 
p819
tp820
Rp821
(dp822
g20
g817
sg21
g13
(g14
g15
VWednesday, April 10th
p823
tp824
Rp825
(dp826
g20
Nsg21
g13
(g22
g23
Ntp827
Rp828
(dp829
g27
I00
sg21
Nsg20
g821
sg74
Vsmall
p830
sg76
g13
(g77
g23
Ntp831
Rp832
(dp833
g27
I00
sg21
g13
(g14
g15
VRegister online April 10 - July 9 at transport.tamu.edu. There is no advantage to registering earlier in the registration process; however, registrations must be completed by July 9 to be assigned a permit with the first distribution. Registrations completed after the July 9 deadline will be assigned on a first come, first served basis based on the remaining availability.
p834
tp835
Rp836
(dp837
g20
Nsg21
g13
(g22
g23
Ntp838
Rp839
(dp840
g27
I00
sg21
g787
sg20
Nsg74
Vdiv
p841
sg76
g832
sg89
Nsg90
Nsg91
g790
sg92
(dp842
Vclass
p843
(lp844
Vsummary
p845
asVrel
p846
Vsummary
p847
ssg99
g836
sg100
g77
sg101
I00
sg102
(lp848
g836
asbsg91
Nsg99
Nsg76
g839
sbsg20
Nsg90
Nsg92
(dp849
sg102
(lp850
g828
ag821
ag817
ag807
ag804
ag794
ag790
ag839
asg106
(lp851
g832
asg100
g77
sg89
Nsg91
Nsg108
I00
sg99
Nsg76
Nsg109
Nsg110
I00
sg111
Nsg101
I1
sg112
Nsg74
g113
sg114
g13
(g115
g23
Ntp852
Rp853
(dp854
g119
Nsg120
((t(dp855
tp856
sbsg123
g832
sg124
(lp857
sg126
Nsbsg89
Nsg90
Nsg91
Nsg92
(dp858
Vclass
p859
(lp860
Vday
p861
asVrel
p862
Vday
p863
ssg99
g825
sg100
g77
sg101
I00
sg102
(lp864
g825
asbsg91
Nsg99
g821
sg76
g828
sbsg91
g828
sg99
g817
sg76
g832
sbsg20
g807
sg74
Vsmall
p865
sg76
g832
sg89
Nsg90
Nsg91
g821
sg92
(dp866
sg99
g814
sg100
g77
sg101
I00
sg102
(lp867
g814
asbsg20
Nsg74
Vabbr
p868
sg76
g817
sg89
Nsg90
Nsg91
Nsg92
(dp869
Vclass
p870
(lp871
Vdtstart
p872
asVrel
p873
Vdtstart
p874
sVtitle
p875
g783
ssg99
g811
sg100
g77
sg101
I00
sg102
(lp876
g811
asbsg91
Nsg99
g807
sg76
g814
sbsg91
g817
sg99
g804
sg76
g832
sbsg20
g794
sg74
Vsmall
p877
sg76
g832
sg89
Nsg90
Nsg91
g807
sg92
(dp878
sg99
g801
sg100
g77
sg101
I00
sg102
(lp879
g801
asbsg20
Nsg74
Vabbr
p880
sg76
g804
sg89
Nsg90
Nsg91
Nsg92
(dp881
Vclass
p882
(lp883
Vdtend
p884
asVrel
p885
Vdtend
p886
sVtitle
p887
g780
ssg99
g798
sg100
g77
sg101
I00
sg102
(lp888
g798
asbsg91
Nsg99
g794
sg76
g801
sbsg91
g804
sg99
g790
sg76
g832
sbsg20
g839
sg74
Vsmall
p889
sg76
g832
sg89
Nsg90
Nsg91
g794
sg92
(dp890
Vclass
p891
(lp892
Vlocation
p893
asVrel
p894
Vlocation
p895
ssg99
g787
sg100
g77
sg101
I00
sg102
(lp896
g787
asbsg91
Nsg99
g839
sg76
g790
sbsa(dp897
g2
V2013-04-12T16:00:00-0500
p898
sg4
VALEC Awards Reception
p899
sg6
VThe department of Agricultural Leadership, Education, & Communication invites donors, former students, parents, and scholarship and award recipients to their 2nd Annual ALEC Awards Reception. Please RSVP by April 1st and include the name of your guests.  Light hors d'oeuvres and refreshments will be served. For more information, please visit alec.tamu.edu/formerstudents\u000a\u000aSource\u000ahttp://calendar.tamu.edu/?&y=2013&m=04&d=12&eventdatetime_id=14634&
p900
sg8
V2013-04-12T14:00:00-0500
p901
sg10
Vhttp://calendar.tamu.edu/?&y=2013&m=04&d=12&eventdatetime_id=14634&
p902
sg12
g13
(g14
g15
VAgrilife Center  (AGCT)
p903
tp904
Rp905
(dp906
g20
Nsg21
g13
(g22
g23
Ntp907
Rp908
(dp909
g27
I00
sg21
g13
(g14
g15
V | 
p910
tp911
Rp912
(dp913
g20
g908
sg21
g13
(g14
g15
V4:00 pm
p914
tp915
Rp916
(dp917
g20
Nsg21
g13
(g22
g23
Ntp918
Rp919
(dp920
g27
I00
sg21
g13
(g22
g23
Ntp921
Rp922
(dp923
g27
I00
sg21
g13
(g14
g15
g42
tp924
Rp925
(dp926
g20
g922
sg21
g13
(g14
g15
V2:00 pm
p927
tp928
Rp929
(dp930
g20
Nsg21
g13
(g22
g23
Ntp931
Rp932
(dp933
g27
I00
sg21
g13
(g22
g23
Ntp934
Rp935
(dp936
g27
I00
sg21
g13
(g14
g15
V | 
p937
tp938
Rp939
(dp940
g20
g935
sg21
g13
(g14
g15
VFriday, April 12th
p941
tp942
Rp943
(dp944
g20
Nsg21
g13
(g22
g23
Ntp945
Rp946
(dp947
g27
I00
sg21
g13
(g14
g15
VDonor & Scholarship Recognition Event
p948
tp949
Rp950
(dp951
g20
Nsg21
g13
(g22
g23
Ntp952
Rp953
(dp954
g27
I00
sg21
Nsg20
g946
sg74
Vdiv
p955
sg76
g13
(g77
g23
Ntp956
Rp957
(dp958
g27
I00
sg21
g13
(g14
g15
VThe department of Agricultural Leadership, Education, & Communication invites donors, former students, parents, and scholarship and award recipients to their 2nd Annual ALEC Awards Reception. Please RSVP by April 1st and include the name of your guests.  Light hors d'oeuvres and refreshments will be served. For more information, please visit alec.tamu.edu/formerstudents
p959
tp960
Rp961
(dp962
g20
Nsg21
g13
(g22
g23
Ntp963
Rp964
(dp965
g27
I00
sg21
g905
sg20
Nsg74
Vdiv
p966
sg76
g957
sg89
Nsg90
Nsg91
g908
sg92
(dp967
Vclass
p968
(lp969
Vsummary
p970
asVrel
p971
Vsummary
p972
ssg99
g961
sg100
g77
sg101
I00
sg102
(lp973
g961
asbsg91
Nsg99
Nsg76
g964
sbsg20
Nsg90
Nsg92
(dp974
sg102
(lp975
g953
ag946
ag939
ag935
ag925
ag922
ag912
ag908
ag964
asg106
(lp976
g957
asg100
g77
sg89
Nsg91
Nsg108
I00
sg99
Nsg76
Nsg109
Nsg110
I00
sg111
Nsg101
I1
sg112
Nsg74
g113
sg114
g13
(g115
g23
Ntp977
Rp978
(dp979
g119
Nsg120
((t(dp980
tp981
sbsg123
g957
sg124
(lp982
sg126
Nsbsg89
Nsg90
Nsg91
Nsg92
(dp983
Vclass
p984
(lp985
Vsubtitle
p986
asVrel
p987
Vsubtitle
p988
ssg99
g950
sg100
g77
sg101
I00
sg102
(lp989
g950
asbsg91
Nsg99
g946
sg76
g953
sbsg20
g939
sg74
Vsmall
p990
sg76
g957
sg89
Nsg90
Nsg91
g953
sg92
(dp991
Vclass
p992
(lp993
Vday
p994
asVrel
p995
Vday
p996
ssg99
g943
sg100
g77
sg101
I00
sg102
(lp997
g943
asbsg91
Nsg99
g939
sg76
g946
sbsg91
g946
sg99
g935
sg76
g957
sbsg20
g925
sg74
Vsmall
p998
sg76
g957
sg89
Nsg90
Nsg91
g939
sg92
(dp999
sg99
g932
sg100
g77
sg101
I00
sg102
(lp1000
g932
asbsg20
Nsg74
Vabbr
p1001
sg76
g935
sg89
Nsg90
Nsg91
Nsg92
(dp1002
Vclass
p1003
(lp1004
Vdtstart
p1005
asVrel
p1006
Vdtstart
p1007
sVtitle
p1008
g901
ssg99
g929
sg100
g77
sg101
I00
sg102
(lp1009
g929
asbsg91
Nsg99
g925
sg76
g932
sbsg91
g935
sg99
g922
sg76
g957
sbsg20
g912
sg74
Vsmall
p1010
sg76
g957
sg89
Nsg90
Nsg91
g925
sg92
(dp1011
sg99
g919
sg100
g77
sg101
I00
sg102
(lp1012
g919
asbsg20
Nsg74
Vabbr
p1013
sg76
g922
sg89
Nsg90
Nsg91
Nsg92
(dp1014
Vclass
p1015
(lp1016
Vdtend
p1017
asVrel
p1018
Vdtend
p1019
sVtitle
p1020
g898
ssg99
g916
sg100
g77
sg101
I00
sg102
(lp1021
g916
asbsg91
Nsg99
g912
sg76
g919
sbsg91
g922
sg99
g908
sg76
g957
sbsg20
g964
sg74
Vsmall
p1022
sg76
g957
sg89
Nsg90
Nsg91
g912
sg92
(dp1023
Vclass
p1024
(lp1025
Vlocation
p1026
asVrel
p1027
Vlocation
p1028
ssg99
g905
sg100
g77
sg101
I00
sg102
(lp1029
g905
asbsg91
Nsg99
g964
sg76
g908
sbsa(dp1030
g2
V2013-04-14T00:00:00-0500
p1031
sg4
V23rd Annual Practical Membrane/Filtration & Separations Technologies Short Course
p1032
sg6
VAttendees will review basic principles of membrane filtration and separations processing, learn about new product formulators and will be given a chance to view demonstrations in the pilot plant facilities at the Food Protein Research & Development Center.\u000a\u000aSource\u000ahttp://calendar.tamu.edu/?&y=2013&m=04&d=14&eventdatetime_id=14838&
p1033
sg8
g1031
sg10
Vhttp://calendar.tamu.edu/?&y=2013&m=04&d=14&eventdatetime_id=14838&
p1034
sg12
g13
(g14
g15
VRudder Tower (RDER)
p1035
tp1036
Rp1037
(dp1038
g20
Nsg21
g13
(g22
g23
Ntp1039
Rp1040
(dp1041
g27
I00
sg21
g13
(g14
g15
V | 
p1042
tp1043
Rp1044
(dp1045
g20
g1040
sg21
g13
(g14
g15
VAll day
p1046
tp1047
Rp1048
(dp1049
g20
Nsg21
g13
(g22
g23
Ntp1050
Rp1051
(dp1052
g27
I00
sg21
g13
(g22
g23
Ntp1053
Rp1054
(dp1055
g27
I00
sg21
g13
(g14
g15
V | 
p1056
tp1057
Rp1058
(dp1059
g20
g1054
sg21
g13
(g14
g15
VSunday, April 14th
p1060
tp1061
Rp1062
(dp1063
g20
Nsg21
g13
(g22
g23
Ntp1064
Rp1065
(dp1066
g27
I00
sg21
Nsg20
g1058
sg74
Vsmall
p1067
sg76
g13
(g77
g23
Ntp1068
Rp1069
(dp1070
g27
I00
sg21
g13
(g14
g15
VAttendees will review basic principles of membrane filtration and separations processing, learn about new product formulators and will be given a chance to view demonstrations in the pilot plant facilities at the Food Protein Research & Development Center.
p1071
tp1072
Rp1073
(dp1074
g20
Nsg21
g13
(g22
g23
Ntp1075
Rp1076
(dp1077
g27
I00
sg21
g1037
sg20
Nsg74
Vdiv
p1078
sg76
g1069
sg89
Nsg90
Nsg91
g1040
sg92
(dp1079
Vclass
p1080
(lp1081
Vsummary
p1082
asVrel
p1083
Vsummary
p1084
ssg99
g1073
sg100
g77
sg101
I00
sg102
(lp1085
g1073
asbsg91
Nsg99
Nsg76
g1076
sbsg20
Nsg90
Nsg92
(dp1086
sg102
(lp1087
g1065
ag1058
ag1054
ag1044
ag1040
ag1076
asg106
(lp1088
g1069
asg100
g77
sg89
Nsg91
Nsg108
I00
sg99
Nsg76
Nsg109
Nsg110
I00
sg111
Nsg101
I1
sg112
Nsg74
g113
sg114
g13
(g115
g23
Ntp1089
Rp1090
(dp1091
g119
Nsg120
((t(dp1092
tp1093
sbsg123
g1069
sg124
(lp1094
sg126
Nsbsg89
Nsg90
Nsg91
Nsg92
(dp1095
Vclass
p1096
(lp1097
Vday
p1098
asVrel
p1099
Vday
p1100
ssg99
g1062
sg100
g77
sg101
I00
sg102
(lp1101
g1062
asbsg91
Nsg99
g1058
sg76
g1065
sbsg91
g1065
sg99
g1054
sg76
g1069
sbsg20
g1044
sg74
Vsmall
p1102
sg76
g1069
sg89
Nsg90
Nsg91
g1058
sg92
(dp1103
sg99
g1051
sg100
g77
sg101
I00
sg102
(lp1104
g1051
asbsg20
Nsg74
Vabbr
p1105
sg76
g1054
sg89
Nsg90
Nsg91
Nsg92
(dp1106
Vclass
p1107
(lp1108
Vdtstart
p1109
asVrel
p1110
Vdtstart
p1111
sVtitle
p1112
g1031
ssg99
g1048
sg100
g77
sg101
I00
sg102
(lp1113
g1048
asbsg91
Nsg99
g1044
sg76
g1051
sbsg91
g1054
sg99
g1040
sg76
g1069
sbsg20
g1076
sg74
Vsmall
p1114
sg76
g1069
sg89
Nsg90
Nsg91
g1044
sg92
(dp1115
Vclass
p1116
(lp1117
Vlocation
p1118
asVrel
p1119
Vlocation
p1120
ssg99
g1037
sg100
g77
sg101
I00
sg102
(lp1121
g1037
asbsg91
Nsg99
g1076
sg76
g1040
sbsa(dp1122
g2
V2013-04-18T20:00:00-0500
p1123
sg4
VFused Glass Class with Crafty Sippers!
p1124
sg6
V$45 Supply Fee Per Student\u000aPre-Registration Required\u000aAges 12 and Up\u000aApril 18 at 6:00 pm \u000aIn the Forsyth Galleries\u000a\u000a\u000aFused glass is the art of designing glass pieces that will be fired in a kiln melting the glass together.  In this class you will chose different colored glass and create a design to form a 6x6 bowl.  You will learn the basic instructions on how to cut glass and use of all the tools which we will supply.  No experience is necessary.  Come prepared for fun and good food!\u000a\u000aSource\u000ahttp://calendar.tamu.edu/?&y=2013&m=04&d=18&eventdatetime_id=15404&
p1125
sg8
V2013-04-18T18:00:00-0500
p1126
sg10
Vhttp://calendar.tamu.edu/?&y=2013&m=04&d=18&eventdatetime_id=15404&
p1127
sg12
g13
(g14
g15
VForsyth Galleries Room:2nd Floor, MSC
p1128
tp1129
Rp1130
(dp1131
g20
Nsg21
g13
(g22
g23
Ntp1132
Rp1133
(dp1134
g27
I00
sg21
g13
(g14
g15
V | 
p1135
tp1136
Rp1137
(dp1138
g20
g1133
sg21
g13
(g14
g15
V8:00 pm
p1139
tp1140
Rp1141
(dp1142
g20
Nsg21
g13
(g22
g23
Ntp1143
Rp1144
(dp1145
g27
I00
sg21
g13
(g22
g23
Ntp1146
Rp1147
(dp1148
g27
I00
sg21
g13
(g14
g15
g42
tp1149
Rp1150
(dp1151
g20
g1147
sg21
g13
(g14
g15
V6:00 pm
p1152
tp1153
Rp1154
(dp1155
g20
Nsg21
g13
(g22
g23
Ntp1156
Rp1157
(dp1158
g27
I00
sg21
g13
(g22
g23
Ntp1159
Rp1160
(dp1161
g27
I00
sg21
g13
(g14
g15
V | 
p1162
tp1163
Rp1164
(dp1165
g20
g1160
sg21
g13
(g14
g15
VThursday, April 18th
p1166
tp1167
Rp1168
(dp1169
g20
Nsg21
g13
(g22
g23
Ntp1170
Rp1171
(dp1172
g27
I00
sg21
Nsg20
g1164
sg74
Vsmall
p1173
sg76
g13
(g77
g23
Ntp1174
Rp1175
(dp1176
g27
I00
sg21
g13
(g14
g15
V$45 Supply Fee Per Student\u000aPre-Registration Required\u000aAges 12 and Up\u000aApril 18 at 6:00 pm \u000aIn the Forsyth Galleries\u000a\u000a\u000aFused glass is the art of designing glass pieces that will be fired in a kiln melting the glass together.  In this class you will chose different colored glass and create a design to form a 6x6 bowl.  You will learn the basic instructions on how to cut glass and use of all the tools which we will supply.  No experience is necessary.  Come prepared for fun and good food!
p1177
tp1178
Rp1179
(dp1180
g20
Nsg21
g13
(g22
g23
Ntp1181
Rp1182
(dp1183
g27
I00
sg21
g1130
sg20
Nsg74
Vdiv
p1184
sg76
g1175
sg89
Nsg90
Nsg91
g1133
sg92
(dp1185
Vclass
p1186
(lp1187
Vsummary
p1188
asVrel
p1189
Vsummary
p1190
ssg99
g1179
sg100
g77
sg101
I00
sg102
(lp1191
g1179
asbsg91
Nsg99
Nsg76
g1182
sbsg20
Nsg90
Nsg92
(dp1192
sg102
(lp1193
g1171
ag1164
ag1160
ag1150
ag1147
ag1137
ag1133
ag1182
asg106
(lp1194
g1175
asg100
g77
sg89
Nsg91
Nsg108
I00
sg99
Nsg76
Nsg109
Nsg110
I00
sg111
Nsg101
I1
sg112
Nsg74
g113
sg114
g13
(g115
g23
Ntp1195
Rp1196
(dp1197
g119
Nsg120
((t(dp1198
tp1199
sbsg123
g1175
sg124
(lp1200
sg126
Nsbsg89
Nsg90
Nsg91
Nsg92
(dp1201
Vclass
p1202
(lp1203
Vday
p1204
asVrel
p1205
Vday
p1206
ssg99
g1168
sg100
g77
sg101
I00
sg102
(lp1207
g1168
asbsg91
Nsg99
g1164
sg76
g1171
sbsg91
g1171
sg99
g1160
sg76
g1175
sbsg20
g1150
sg74
Vsmall
p1208
sg76
g1175
sg89
Nsg90
Nsg91
g1164
sg92
(dp1209
sg99
g1157
sg100
g77
sg101
I00
sg102
(lp1210
g1157
asbsg20
Nsg74
Vabbr
p1211
sg76
g1160
sg89
Nsg90
Nsg91
Nsg92
(dp1212
Vclass
p1213
(lp1214
Vdtstart
p1215
asVrel
p1216
Vdtstart
p1217
sVtitle
p1218
g1126
ssg99
g1154
sg100
g77
sg101
I00
sg102
(lp1219
g1154
asbsg91
Nsg99
g1150
sg76
g1157
sbsg91
g1160
sg99
g1147
sg76
g1175
sbsg20
g1137
sg74
Vsmall
p1220
sg76
g1175
sg89
Nsg90
Nsg91
g1150
sg92
(dp1221
sg99
g1144
sg100
g77
sg101
I00
sg102
(lp1222
g1144
asbsg20
Nsg74
Vabbr
p1223
sg76
g1147
sg89
Nsg90
Nsg91
Nsg92
(dp1224
Vclass
p1225
(lp1226
Vdtend
p1227
asVrel
p1228
Vdtend
p1229
sVtitle
p1230
g1123
ssg99
g1141
sg100
g77
sg101
I00
sg102
(lp1231
g1141
asbsg91
Nsg99
g1137
sg76
g1144
sbsg91
g1147
sg99
g1133
sg76
g1175
sbsg20
g1182
sg74
Vsmall
p1232
sg76
g1175
sg89
Nsg90
Nsg91
g1137
sg92
(dp1233
Vclass
p1234
(lp1235
Vlocation
p1236
asVrel
p1237
Vlocation
p1238
ssg99
g1130
sg100
g77
sg101
I00
sg102
(lp1239
g1130
asbsg91
Nsg99
g1182
sg76
g1133
sbsa(dp1240
g2
V2013-05-06T11:30:00-0500
p1241
sg4
VBlue Bell Lecture: Food Policy and Trade
p1242
sg6
VThe College of Agriculture and Life Sciences recognizes there are several grand challenges facing society today - especially in light of the ever-growing population. Join us at this special Blue Bell Lecture Series presentation as we discuss food policy and trade with Dr. Robert L. Thompson from Johns Hopkins University.\u000a\u000aSource\u000ahttp://calendar.tamu.edu/?&y=2013&m=05&d=06&eventdatetime_id=15539&
p1243
sg8
V2013-05-06T10:30:00-0500
p1244
sg10
Vhttp://calendar.tamu.edu/?&y=2013&m=05&d=06&eventdatetime_id=15539&
p1245
sg12
g13
(g14
g15
VAgrilife Center  (AGCT)
p1246
tp1247
Rp1248
(dp1249
g20
Nsg21
g13
(g22
g23
Ntp1250
Rp1251
(dp1252
g27
I00
sg21
g13
(g14
g15
V | 
p1253
tp1254
Rp1255
(dp1256
g20
g1251
sg21
g13
(g14
g15
V11:30 am
p1257
tp1258
Rp1259
(dp1260
g20
Nsg21
g13
(g22
g23
Ntp1261
Rp1262
(dp1263
g27
I00
sg21
g13
(g22
g23
Ntp1264
Rp1265
(dp1266
g27
I00
sg21
g13
(g14
g15
g42
tp1267
Rp1268
(dp1269
g20
g1265
sg21
g13
(g14
g15
V10:30 am
p1270
tp1271
Rp1272
(dp1273
g20
Nsg21
g13
(g22
g23
Ntp1274
Rp1275
(dp1276
g27
I00
sg21
g13
(g22
g23
Ntp1277
Rp1278
(dp1279
g27
I00
sg21
g13
(g14
g15
V | 
p1280
tp1281
Rp1282
(dp1283
g20
g1278
sg21
g13
(g14
g15
VMonday, May 6th
p1284
tp1285
Rp1286
(dp1287
g20
Nsg21
g13
(g22
g23
Ntp1288
Rp1289
(dp1290
g27
I00
sg21
g13
(g14
g15
VSharing a Vision for this Grand Challenge
p1291
tp1292
Rp1293
(dp1294
g20
Nsg21
g13
(g22
g23
Ntp1295
Rp1296
(dp1297
g27
I00
sg21
Nsg20
g1289
sg74
Vdiv
p1298
sg76
g13
(g77
g23
Ntp1299
Rp1300
(dp1301
g27
I00
sg21
g13
(g14
g15
VThe College of Agriculture and Life Sciences recognizes there are several grand challenges facing society today - especially in light of the ever-growing population. Join us at this special Blue Bell Lecture Series presentation as we discuss food policy and trade with Dr. Robert L. Thompson from Johns Hopkins University.
p1302
tp1303
Rp1304
(dp1305
g20
Nsg21
g13
(g22
g23
Ntp1306
Rp1307
(dp1308
g27
I00
sg21
g1248
sg20
Nsg74
Vdiv
p1309
sg76
g1300
sg89
Nsg90
Nsg91
g1251
sg92
(dp1310
Vclass
p1311
(lp1312
Vsummary
p1313
asVrel
p1314
Vsummary
p1315
ssg99
g1304
sg100
g77
sg101
I00
sg102
(lp1316
g1304
asbsg91
Nsg99
Nsg76
g1307
sbsg20
Nsg90
Nsg92
(dp1317
sg102
(lp1318
g1296
ag1289
ag1282
ag1278
ag1268
ag1265
ag1255
ag1251
ag1307
asg106
(lp1319
g1300
asg100
g77
sg89
Nsg91
Nsg108
I00
sg99
Nsg76
Nsg109
Nsg110
I00
sg111
Nsg101
I1
sg112
Nsg74
g113
sg114
g13
(g115
g23
Ntp1320
Rp1321
(dp1322
g119
Nsg120
((t(dp1323
tp1324
sbsg123
g1300
sg124
(lp1325
sg126
Nsbsg89
Nsg90
Nsg91
Nsg92
(dp1326
Vclass
p1327
(lp1328
Vsubtitle
p1329
asVrel
p1330
Vsubtitle
p1331
ssg99
g1293
sg100
g77
sg101
I00
sg102
(lp1332
g1293
asbsg91
Nsg99
g1289
sg76
g1296
sbsg20
g1282
sg74
Vsmall
p1333
sg76
g1300
sg89
Nsg90
Nsg91
g1296
sg92
(dp1334
Vclass
p1335
(lp1336
Vday
p1337
asVrel
p1338
Vday
p1339
ssg99
g1286
sg100
g77
sg101
I00
sg102
(lp1340
g1286
asbsg91
Nsg99
g1282
sg76
g1289
sbsg91
g1289
sg99
g1278
sg76
g1300
sbsg20
g1268
sg74
Vsmall
p1341
sg76
g1300
sg89
Nsg90
Nsg91
g1282
sg92
(dp1342
sg99
g1275
sg100
g77
sg101
I00
sg102
(lp1343
g1275
asbsg20
Nsg74
Vabbr
p1344
sg76
g1278
sg89
Nsg90
Nsg91
Nsg92
(dp1345
Vclass
p1346
(lp1347
Vdtstart
p1348
asVrel
p1349
Vdtstart
p1350
sVtitle
p1351
g1244
ssg99
g1272
sg100
g77
sg101
I00
sg102
(lp1352
g1272
asbsg91
Nsg99
g1268
sg76
g1275
sbsg91
g1278
sg99
g1265
sg76
g1300
sbsg20
g1255
sg74
Vsmall
p1353
sg76
g1300
sg89
Nsg90
Nsg91
g1268
sg92
(dp1354
sg99
g1262
sg100
g77
sg101
I00
sg102
(lp1355
g1262
asbsg20
Nsg74
Vabbr
p1356
sg76
g1265
sg89
Nsg90
Nsg91
Nsg92
(dp1357
Vclass
p1358
(lp1359
Vdtend
p1360
asVrel
p1361
Vdtend
p1362
sVtitle
p1363
g1241
ssg99
g1259
sg100
g77
sg101
I00
sg102
(lp1364
g1259
asbsg91
Nsg99
g1255
sg76
g1262
sbsg91
g1265
sg99
g1251
sg76
g1300
sbsg20
g1307
sg74
Vsmall
p1365
sg76
g1300
sg89
Nsg90
Nsg91
g1255
sg92
(dp1366
Vclass
p1367
(lp1368
Vlocation
p1369
asVrel
p1370
Vlocation
p1371
ssg99
g1248
sg100
g77
sg101
I00
sg102
(lp1372
g1248
asbsg91
Nsg99
g1307
sg76
g1251
sbsa.