(lp0
(dp1
S'end'
p2
V2013-01-10T18:00:00-0600
p3
sS'Title'
p4
VSpring 2013 International Student Conference
p5
sS'Content'
p6
VAll international students and their families as well as all faculty and staff are invited to attend the Spring 2013 International Student Conference on Thursday, January 10! The conference will again feature concurrent sessions and a resource fair. Best of all, the conference is free to attend, will be held on-campus, and refreshments will be provided! Detailed information, including descriptions of the NEW sessions and the online registration system can be found on the International Student Conference webpage: http://iss.tamu.edu/events/issevents.asp\u000a\u000aSource\u000ahttp://calendar.tamu.edu/?&y=2013&m=01&d=10&eventdatetime_id=13892&
p7
sS'start'
p8
V2013-01-10T08:00:00-0600
p9
sS'link'
p10
Vhttp://calendar.tamu.edu/?&y=2013&m=01&d=10&eventdatetime_id=13892&
p11
sS'location'
p12
ccopy_reg
_reconstructor
p13
(cbs4.element
NavigableString
p14
c__builtin__
unicode
p15
V Texas A&M University Room:Zachry Engineering Center
p16
tp17
Rp18
(dp19
S'next_sibling'
p20
NsS'previous_element'
p21
g13
(cbs4.element
Tag
p22
c__builtin__
object
p23
Ntp24
Rp25
(dp26
S'can_be_empty_element'
p27
I00
sg21
g13
(g14
g15
V | 
p28
tp29
Rp30
(dp31
g20
g25
sg21
g13
(g14
g15
V6:00 pm
p32
tp33
Rp34
(dp35
g20
Nsg21
g13
(g22
g23
Ntp36
Rp37
(dp38
g27
I00
sg21
g13
(g22
g23
Ntp39
Rp40
(dp41
g27
I00
sg21
g13
(g14
g15
V-
p42
tp43
Rp44
(dp45
g20
g40
sg21
g13
(g14
g15
V8:00 am
p46
tp47
Rp48
(dp49
g20
Nsg21
g13
(g22
g23
Ntp50
Rp51
(dp52
g27
I00
sg21
g13
(g22
g23
Ntp53
Rp54
(dp55
g27
I00
sg21
g13
(g14
g15
V | 
p56
tp57
Rp58
(dp59
g20
g54
sg21
g13
(g14
g15
VThursday, January 10th
p60
tp61
Rp62
(dp63
g20
Nsg21
g13
(g22
g23
Ntp64
Rp65
(dp66
g27
I00
sg21
Nsg20
g58
sS'name'
p67
Vsmall
p68
sS'parent'
p69
g13
(cbs4
BeautifulSoup
p70
g23
Ntp71
Rp72
(dp73
g27
I00
sg21
g13
(g14
g15
VAll international students and their families as well as all faculty and staff are invited to attend the Spring 2013 International Student Conference on Thursday, January 10! The conference will again feature concurrent sessions and a resource fair. Best of all, the conference is free to attend, will be held on-campus, and refreshments will be provided! Detailed information, including descriptions of the NEW sessions and the online registration system can be found on the International Student Conference webpage: http://iss.tamu.edu/events/issevents.asp
p74
tp75
Rp76
(dp77
g20
Nsg21
g13
(g22
g23
Ntp78
Rp79
(dp80
g27
I00
sg21
g18
sg20
Nsg67
Vdiv
p81
sg69
g72
sS'namespace'
p82
NsS'prefix'
p83
NsS'previous_sibling'
p84
g25
sS'attrs'
p85
(dp86
Vclass
p87
(lp88
Vsummary
p89
asVrel
p90
Vsummary
p91
ssS'next_element'
p92
g76
sS'parser_class'
p93
g70
sS'hidden'
p94
I00
sS'contents'
p95
(lp96
g76
asbsg84
Nsg92
Nsg69
g79
sbsg20
Nsg83
Nsg85
(dp97
sg95
(lp98
g65
ag58
ag54
ag44
ag40
ag30
ag25
ag79
asS'tagStack'
p99
(lp100
g72
asg93
g70
sg82
Nsg84
NsS'contains_replacement_characters'
p101
I00
sg92
Nsg69
NsS'declared_html_encoding'
p102
NsS'is_xml'
p103
I00
sS'parse_only'
p104
Nsg94
I1
sS'original_encoding'
p105
Nsg67
V[document]
p106
sS'builder'
p107
g13
(cbs4.builder._htmlparser
HTMLParserTreeBuilder
p108
g23
Ntp109
Rp110
(dp111
S'soup'
p112
NsS'parser_args'
p113
((t(dp114
tp115
sbsS'currentTag'
p116
g72
sS'currentData'
p117
(lp118
sS'markup'
p119
Nsbsg82
Nsg83
Nsg84
Nsg85
(dp120
Vclass
p121
(lp122
Vday
p123
asVrel
p124
Vday
p125
ssg92
g62
sg93
g70
sg94
I00
sg95
(lp126
g62
asbsg84
Nsg92
g58
sg69
g65
sbsg84
g65
sg92
g54
sg69
g72
sbsg20
g44
sg67
Vsmall
p127
sg69
g72
sg82
Nsg83
Nsg84
g58
sg85
(dp128
sg92
g51
sg93
g70
sg94
I00
sg95
(lp129
g51
asbsg20
Nsg67
Vabbr
p130
sg69
g54
sg82
Nsg83
Nsg84
Nsg85
(dp131
Vclass
p132
(lp133
Vdtstart
p134
asVrel
p135
Vdtstart
p136
sVtitle
p137
g9
ssg92
g48
sg93
g70
sg94
I00
sg95
(lp138
g48
asbsg84
Nsg92
g44
sg69
g51
sbsg84
g54
sg92
g40
sg69
g72
sbsg20
g30
sg67
Vsmall
p139
sg69
g72
sg82
Nsg83
Nsg84
g44
sg85
(dp140
sg92
g37
sg93
g70
sg94
I00
sg95
(lp141
g37
asbsg20
Nsg67
Vabbr
p142
sg69
g40
sg82
Nsg83
Nsg84
Nsg85
(dp143
Vclass
p144
(lp145
Vdtend
p146
asVrel
p147
Vdtend
p148
sVtitle
p149
g3
ssg92
g34
sg93
g70
sg94
I00
sg95
(lp150
g34
asbsg84
Nsg92
g30
sg69
g37
sbsg84
g40
sg92
g25
sg69
g72
sbsg20
g79
sg67
Vsmall
p151
sg69
g72
sg82
Nsg83
Nsg84
g30
sg85
(dp152
Vclass
p153
(lp154
Vlocation
p155
asVrel
p156
Vlocation
p157
ssg92
g18
sg93
g70
sg94
I00
sg95
(lp158
g18
asbsg84
Nsg92
g79
sg69
g25
sbsa(dp159
g2
V2013-01-22T20:00:00-0600
p160
sg4
VArt Menagerie Reception honoring special guest Reveille VIII
p161
sg6
VPlease join us for a reception Tuesday, January 22, 2013 from 6:00 to 8:00, and meet our Special Guest, Reveille VIII! Please consider bringing dog or cat food or shelter items to donate to God\u2019s Little Creatures or Brazos Feral Cat Allies.\u000a\u000aSource\u000ahttp://calendar.tamu.edu/?&y=2013&m=01&d=22&eventdatetime_id=14200&
p162
sg8
V2013-01-22T18:00:00-0600
p163
sg10
Vhttp://calendar.tamu.edu/?&y=2013&m=01&d=22&eventdatetime_id=14200&
p164
sg12
g13
(g14
g15
VForsyth Galleries
p165
tp166
Rp167
(dp168
g20
Nsg21
g13
(g22
g23
Ntp169
Rp170
(dp171
g27
I00
sg21
g13
(g14
g15
V | 
p172
tp173
Rp174
(dp175
g20
g170
sg21
g13
(g14
g15
V8:00 pm
p176
tp177
Rp178
(dp179
g20
Nsg21
g13
(g22
g23
Ntp180
Rp181
(dp182
g27
I00
sg21
g13
(g22
g23
Ntp183
Rp184
(dp185
g27
I00
sg21
g13
(g14
g15
g42
tp186
Rp187
(dp188
g20
g184
sg21
g13
(g14
g15
V6:00 pm
p189
tp190
Rp191
(dp192
g20
Nsg21
g13
(g22
g23
Ntp193
Rp194
(dp195
g27
I00
sg21
g13
(g22
g23
Ntp196
Rp197
(dp198
g27
I00
sg21
g13
(g14
g15
V | 
p199
tp200
Rp201
(dp202
g20
g197
sg21
g13
(g14
g15
VTuesday, January 22nd
p203
tp204
Rp205
(dp206
g20
Nsg21
g13
(g22
g23
Ntp207
Rp208
(dp209
g27
I00
sg21
g13
(g14
g15
VMeet and greet with Reveille!
p210
tp211
Rp212
(dp213
g20
Nsg21
g13
(g22
g23
Ntp214
Rp215
(dp216
g27
I00
sg21
Nsg20
g208
sg67
Vdiv
p217
sg69
g13
(g70
g23
Ntp218
Rp219
(dp220
g27
I00
sg21
g13
(g14
g15
VPlease join us for a reception Tuesday, January 22, 2013 from 6:00 to 8:00, and meet our Special Guest, Reveille VIII! Please consider bringing dog or cat food or shelter items to donate to God\u2019s Little Creatures or Brazos Feral Cat Allies.
p221
tp222
Rp223
(dp224
g20
Nsg21
g13
(g22
g23
Ntp225
Rp226
(dp227
g27
I00
sg21
g167
sg20
Nsg67
Vdiv
p228
sg69
g219
sg82
Nsg83
Nsg84
g170
sg85
(dp229
Vclass
p230
(lp231
Vsummary
p232
asVrel
p233
Vsummary
p234
ssg92
g223
sg93
g70
sg94
I00
sg95
(lp235
g223
asbsg84
Nsg92
Nsg69
g226
sbsg20
Nsg83
Nsg85
(dp236
sg95
(lp237
g215
ag208
ag201
ag197
ag187
ag184
ag174
ag170
ag226
asg99
(lp238
g219
asg93
g70
sg82
Nsg84
Nsg101
I00
sg92
Nsg69
Nsg102
Nsg103
I00
sg104
Nsg94
I1
sg105
Nsg67
g106
sg107
g13
(g108
g23
Ntp239
Rp240
(dp241
g112
Nsg113
((t(dp242
tp243
sbsg116
g219
sg117
(lp244
sg119
Nsbsg82
Nsg83
Nsg84
Nsg85
(dp245
Vclass
p246
(lp247
Vsubtitle
p248
asVrel
p249
Vsubtitle
p250
ssg92
g212
sg93
g70
sg94
I00
sg95
(lp251
g212
asbsg84
Nsg92
g208
sg69
g215
sbsg20
g201
sg67
Vsmall
p252
sg69
g219
sg82
Nsg83
Nsg84
g215
sg85
(dp253
Vclass
p254
(lp255
Vday
p256
asVrel
p257
Vday
p258
ssg92
g205
sg93
g70
sg94
I00
sg95
(lp259
g205
asbsg84
Nsg92
g201
sg69
g208
sbsg84
g208
sg92
g197
sg69
g219
sbsg20
g187
sg67
Vsmall
p260
sg69
g219
sg82
Nsg83
Nsg84
g201
sg85
(dp261
sg92
g194
sg93
g70
sg94
I00
sg95
(lp262
g194
asbsg20
Nsg67
Vabbr
p263
sg69
g197
sg82
Nsg83
Nsg84
Nsg85
(dp264
Vclass
p265
(lp266
Vdtstart
p267
asVrel
p268
Vdtstart
p269
sVtitle
p270
g163
ssg92
g191
sg93
g70
sg94
I00
sg95
(lp271
g191
asbsg84
Nsg92
g187
sg69
g194
sbsg84
g197
sg92
g184
sg69
g219
sbsg20
g174
sg67
Vsmall
p272
sg69
g219
sg82
Nsg83
Nsg84
g187
sg85
(dp273
sg92
g181
sg93
g70
sg94
I00
sg95
(lp274
g181
asbsg20
Nsg67
Vabbr
p275
sg69
g184
sg82
Nsg83
Nsg84
Nsg85
(dp276
Vclass
p277
(lp278
Vdtend
p279
asVrel
p280
Vdtend
p281
sVtitle
p282
g160
ssg92
g178
sg93
g70
sg94
I00
sg95
(lp283
g178
asbsg84
Nsg92
g174
sg69
g181
sbsg84
g184
sg92
g170
sg69
g219
sbsg20
g226
sg67
Vsmall
p284
sg69
g219
sg82
Nsg83
Nsg84
g174
sg85
(dp285
Vclass
p286
(lp287
Vlocation
p288
asVrel
p289
Vlocation
p290
ssg92
g167
sg93
g70
sg94
I00
sg95
(lp291
g167
asbsg84
Nsg92
g226
sg69
g170
sbsa(dp292
g2
V2013-01-24T17:30:00-0600
p293
sg4
V"Mandatory Ultrasound Viewing and the Politics of Vision"
p294
sg6
VRefreshments will be served at 3:30 p.m.\u000aLecture on reproductive ethics, personhood, and the law.\u000aEvent sponsored by the Women\u2019s and Gender Studies Program, the Melbern G. Glasscock Center for Humanities Research, the Department of Philosophy & the Department of Communication.\u000a\u000aSource\u000ahttp://calendar.tamu.edu/?&y=2013&m=01&d=24&eventdatetime_id=13244&
p295
sg8
V2013-01-24T16:30:00-0600
p296
sg10
Vhttp://calendar.tamu.edu/?&y=2013&m=01&d=24&eventdatetime_id=13244&
p297
sg12
g13
(g14
g15
VMelbern G. Glasscock History Building (HIST) Room:311
p298
tp299
Rp300
(dp301
g20
Nsg21
g13
(g22
g23
Ntp302
Rp303
(dp304
g27
I00
sg21
g13
(g14
g15
V | 
p305
tp306
Rp307
(dp308
g20
g303
sg21
g13
(g14
g15
V5:30 pm
p309
tp310
Rp311
(dp312
g20
Nsg21
g13
(g22
g23
Ntp313
Rp314
(dp315
g27
I00
sg21
g13
(g22
g23
Ntp316
Rp317
(dp318
g27
I00
sg21
g13
(g14
g15
g42
tp319
Rp320
(dp321
g20
g317
sg21
g13
(g14
g15
V4:30 pm
p322
tp323
Rp324
(dp325
g20
Nsg21
g13
(g22
g23
Ntp326
Rp327
(dp328
g27
I00
sg21
g13
(g22
g23
Ntp329
Rp330
(dp331
g27
I00
sg21
g13
(g14
g15
V | 
p332
tp333
Rp334
(dp335
g20
g330
sg21
g13
(g14
g15
VThursday, January 24th
p336
tp337
Rp338
(dp339
g20
Nsg21
g13
(g22
g23
Ntp340
Rp341
(dp342
g27
I00
sg21
g13
(g14
g15
VGlasscock Center Notable Lecture: Rebecca Kukla
p343
tp344
Rp345
(dp346
g20
Nsg21
g13
(g22
g23
Ntp347
Rp348
(dp349
g27
I00
sg21
Nsg20
g341
sg67
Vdiv
p350
sg69
g13
(g70
g23
Ntp351
Rp352
(dp353
g27
I00
sg21
g13
(g14
g15
VRefreshments will be served at 3:30 p.m.\u000aLecture on reproductive ethics, personhood, and the law.\u000aEvent sponsored by the Women\u2019s and Gender Studies Program, the Melbern G. Glasscock Center for Humanities Research, the Department of Philosophy & the Department of Communication.
p354
tp355
Rp356
(dp357
g20
Nsg21
g13
(g22
g23
Ntp358
Rp359
(dp360
g27
I00
sg21
g300
sg20
Nsg67
Vdiv
p361
sg69
g352
sg82
Nsg83
Nsg84
g303
sg85
(dp362
Vclass
p363
(lp364
Vsummary
p365
asVrel
p366
Vsummary
p367
ssg92
g356
sg93
g70
sg94
I00
sg95
(lp368
g356
asbsg84
Nsg92
Nsg69
g359
sbsg20
Nsg83
Nsg85
(dp369
sg95
(lp370
g348
ag341
ag334
ag330
ag320
ag317
ag307
ag303
ag359
asg99
(lp371
g352
asg93
g70
sg82
Nsg84
Nsg101
I00
sg92
Nsg69
Nsg102
Nsg103
I00
sg104
Nsg94
I1
sg105
Nsg67
g106
sg107
g13
(g108
g23
Ntp372
Rp373
(dp374
g112
Nsg113
((t(dp375
tp376
sbsg116
g352
sg117
(lp377
sg119
Nsbsg82
Nsg83
Nsg84
Nsg85
(dp378
Vclass
p379
(lp380
Vsubtitle
p381
asVrel
p382
Vsubtitle
p383
ssg92
g345
sg93
g70
sg94
I00
sg95
(lp384
g345
asbsg84
Nsg92
g341
sg69
g348
sbsg20
g334
sg67
Vsmall
p385
sg69
g352
sg82
Nsg83
Nsg84
g348
sg85
(dp386
Vclass
p387
(lp388
Vday
p389
asVrel
p390
Vday
p391
ssg92
g338
sg93
g70
sg94
I00
sg95
(lp392
g338
asbsg84
Nsg92
g334
sg69
g341
sbsg84
g341
sg92
g330
sg69
g352
sbsg20
g320
sg67
Vsmall
p393
sg69
g352
sg82
Nsg83
Nsg84
g334
sg85
(dp394
sg92
g327
sg93
g70
sg94
I00
sg95
(lp395
g327
asbsg20
Nsg67
Vabbr
p396
sg69
g330
sg82
Nsg83
Nsg84
Nsg85
(dp397
Vclass
p398
(lp399
Vdtstart
p400
asVrel
p401
Vdtstart
p402
sVtitle
p403
g296
ssg92
g324
sg93
g70
sg94
I00
sg95
(lp404
g324
asbsg84
Nsg92
g320
sg69
g327
sbsg84
g330
sg92
g317
sg69
g352
sbsg20
g307
sg67
Vsmall
p405
sg69
g352
sg82
Nsg83
Nsg84
g320
sg85
(dp406
sg92
g314
sg93
g70
sg94
I00
sg95
(lp407
g314
asbsg20
Nsg67
Vabbr
p408
sg69
g317
sg82
Nsg83
Nsg84
Nsg85
(dp409
Vclass
p410
(lp411
Vdtend
p412
asVrel
p413
Vdtend
p414
sVtitle
p415
g293
ssg92
g311
sg93
g70
sg94
I00
sg95
(lp416
g311
asbsg84
Nsg92
g307
sg69
g314
sbsg84
g317
sg92
g303
sg69
g352
sbsg20
g359
sg67
Vsmall
p417
sg69
g352
sg82
Nsg83
Nsg84
g307
sg85
(dp418
Vclass
p419
(lp420
Vlocation
p421
asVrel
p422
Vlocation
p423
ssg92
g300
sg93
g70
sg94
I00
sg95
(lp424
g300
asbsg84
Nsg92
g359
sg69
g303
sbsa(dp425
g2
V2013-01-30T16:30:00-0600
p426
sg4
VAFST, FILM, JOUR, RELS, and WGST Open House
p427
sg6
VThe Africana Studies, Film Studies, Journalism Studies, Religious Studies, and Women\u2019s and Gender Studies Programs will be hosting an Open House on Wednesday, January 30, 2013, from 3:00 p.m. to 4:30 p.m., in Bolton Hall 314, refreshments served.  We would like to invite everyone to drop by and visit for a while.\u000a\u000aSource\u000ahttp://calendar.tamu.edu/?&y=2013&m=01&d=30&eventdatetime_id=14539&
p428
sg8
V2013-01-30T15:00:00-0600
p429
sg10
Vhttp://calendar.tamu.edu/?&y=2013&m=01&d=30&eventdatetime_id=14539&
p430
sg12
g13
(g14
g15
VBolton Hall (BLTN)
p431
tp432
Rp433
(dp434
g20
Nsg21
g13
(g22
g23
Ntp435
Rp436
(dp437
g27
I00
sg21
g13
(g14
g15
V | 
p438
tp439
Rp440
(dp441
g20
g436
sg21
g13
(g14
g15
V4:30 pm
p442
tp443
Rp444
(dp445
g20
Nsg21
g13
(g22
g23
Ntp446
Rp447
(dp448
g27
I00
sg21
g13
(g22
g23
Ntp449
Rp450
(dp451
g27
I00
sg21
g13
(g14
g15
g42
tp452
Rp453
(dp454
g20
g450
sg21
g13
(g14
g15
V3:00 pm
p455
tp456
Rp457
(dp458
g20
Nsg21
g13
(g22
g23
Ntp459
Rp460
(dp461
g27
I00
sg21
g13
(g22
g23
Ntp462
Rp463
(dp464
g27
I00
sg21
g13
(g14
g15
V | 
p465
tp466
Rp467
(dp468
g20
g463
sg21
g13
(g14
g15
VWednesday, January 30th
p469
tp470
Rp471
(dp472
g20
Nsg21
g13
(g22
g23
Ntp473
Rp474
(dp475
g27
I00
sg21
Nsg20
g467
sg67
Vsmall
p476
sg69
g13
(g70
g23
Ntp477
Rp478
(dp479
g27
I00
sg21
g13
(g14
g15
VThe Africana Studies, Film Studies, Journalism Studies, Religious Studies, and Women\u2019s and Gender Studies Programs will be hosting an Open House on Wednesday, January 30, 2013, from 3:00 p.m. to 4:30 p.m., in Bolton Hall 314, refreshments served.  We would like to invite everyone to drop by and visit for a while.
p480
tp481
Rp482
(dp483
g20
Nsg21
g13
(g22
g23
Ntp484
Rp485
(dp486
g27
I00
sg21
g433
sg20
Nsg67
Vdiv
p487
sg69
g478
sg82
Nsg83
Nsg84
g436
sg85
(dp488
Vclass
p489
(lp490
Vsummary
p491
asVrel
p492
Vsummary
p493
ssg92
g482
sg93
g70
sg94
I00
sg95
(lp494
g482
asbsg84
Nsg92
Nsg69
g485
sbsg20
Nsg83
Nsg85
(dp495
sg95
(lp496
g474
ag467
ag463
ag453
ag450
ag440
ag436
ag485
asg99
(lp497
g478
asg93
g70
sg82
Nsg84
Nsg101
I00
sg92
Nsg69
Nsg102
Nsg103
I00
sg104
Nsg94
I1
sg105
Nsg67
g106
sg107
g13
(g108
g23
Ntp498
Rp499
(dp500
g112
Nsg113
((t(dp501
tp502
sbsg116
g478
sg117
(lp503
sg119
Nsbsg82
Nsg83
Nsg84
Nsg85
(dp504
Vclass
p505
(lp506
Vday
p507
asVrel
p508
Vday
p509
ssg92
g471
sg93
g70
sg94
I00
sg95
(lp510
g471
asbsg84
Nsg92
g467
sg69
g474
sbsg84
g474
sg92
g463
sg69
g478
sbsg20
g453
sg67
Vsmall
p511
sg69
g478
sg82
Nsg83
Nsg84
g467
sg85
(dp512
sg92
g460
sg93
g70
sg94
I00
sg95
(lp513
g460
asbsg20
Nsg67
Vabbr
p514
sg69
g463
sg82
Nsg83
Nsg84
Nsg85
(dp515
Vclass
p516
(lp517
Vdtstart
p518
asVrel
p519
Vdtstart
p520
sVtitle
p521
g429
ssg92
g457
sg93
g70
sg94
I00
sg95
(lp522
g457
asbsg84
Nsg92
g453
sg69
g460
sbsg84
g463
sg92
g450
sg69
g478
sbsg20
g440
sg67
Vsmall
p523
sg69
g478
sg82
Nsg83
Nsg84
g453
sg85
(dp524
sg92
g447
sg93
g70
sg94
I00
sg95
(lp525
g447
asbsg20
Nsg67
Vabbr
p526
sg69
g450
sg82
Nsg83
Nsg84
Nsg85
(dp527
Vclass
p528
(lp529
Vdtend
p530
asVrel
p531
Vdtend
p532
sVtitle
p533
g426
ssg92
g444
sg93
g70
sg94
I00
sg95
(lp534
g444
asbsg84
Nsg92
g440
sg69
g447
sbsg84
g450
sg92
g436
sg69
g478
sbsg20
g485
sg67
Vsmall
p535
sg69
g478
sg82
Nsg83
Nsg84
g440
sg85
(dp536
Vclass
p537
(lp538
Vlocation
p539
asVrel
p540
Vlocation
p541
ssg92
g433
sg93
g70
sg94
I00
sg95
(lp542
g433
asbsg84
Nsg92
g485
sg69
g436
sbsa(dp543
g2
V2013-02-07T21:45:00-0600
p544
sg4
VWGST Movie Night: Pitch Perfect
p545
sg6
VThe Women's and Gender Studies Department will be hosting a free viewing of the hit movie "Pitch Perfect" for students on February 7. Refreshments will be served, so bring out your friends for a free night at the movies!\u000a\u000aSource\u000ahttp://calendar.tamu.edu/?&y=2013&m=02&d=07&eventdatetime_id=14712&
p546
sg8
V2013-02-07T19:00:00-0600
p547
sg10
Vhttp://calendar.tamu.edu/?&y=2013&m=02&d=07&eventdatetime_id=14712&
p548
sg12
g13
(g14
g15
VHarrington Education Center Classrooms (HECC) Room:209
p549
tp550
Rp551
(dp552
g20
Nsg21
g13
(g22
g23
Ntp553
Rp554
(dp555
g27
I00
sg21
g13
(g14
g15
V | 
p556
tp557
Rp558
(dp559
g20
g554
sg21
g13
(g14
g15
V9:45 pm
p560
tp561
Rp562
(dp563
g20
Nsg21
g13
(g22
g23
Ntp564
Rp565
(dp566
g27
I00
sg21
g13
(g22
g23
Ntp567
Rp568
(dp569
g27
I00
sg21
g13
(g14
g15
g42
tp570
Rp571
(dp572
g20
g568
sg21
g13
(g14
g15
V7:00 pm
p573
tp574
Rp575
(dp576
g20
Nsg21
g13
(g22
g23
Ntp577
Rp578
(dp579
g27
I00
sg21
g13
(g22
g23
Ntp580
Rp581
(dp582
g27
I00
sg21
g13
(g14
g15
V | 
p583
tp584
Rp585
(dp586
g20
g581
sg21
g13
(g14
g15
VThursday, February 7th
p587
tp588
Rp589
(dp590
g20
Nsg21
g13
(g22
g23
Ntp591
Rp592
(dp593
g27
I00
sg21
Nsg20
g585
sg67
Vsmall
p594
sg69
g13
(g70
g23
Ntp595
Rp596
(dp597
g27
I00
sg21
g13
(g14
g15
VThe Women's and Gender Studies Department will be hosting a free viewing of the hit movie "Pitch Perfect" for students on February 7. Refreshments will be served, so bring out your friends for a free night at the movies!
p598
tp599
Rp600
(dp601
g20
Nsg21
g13
(g22
g23
Ntp602
Rp603
(dp604
g27
I00
sg21
g551
sg20
Nsg67
Vdiv
p605
sg69
g596
sg82
Nsg83
Nsg84
g554
sg85
(dp606
Vclass
p607
(lp608
Vsummary
p609
asVrel
p610
Vsummary
p611
ssg92
g600
sg93
g70
sg94
I00
sg95
(lp612
g600
asbsg84
Nsg92
Nsg69
g603
sbsg20
Nsg83
Nsg85
(dp613
sg95
(lp614
g592
ag585
ag581
ag571
ag568
ag558
ag554
ag603
asg99
(lp615
g596
asg93
g70
sg82
Nsg84
Nsg101
I00
sg92
Nsg69
Nsg102
Nsg103
I00
sg104
Nsg94
I1
sg105
Nsg67
g106
sg107
g13
(g108
g23
Ntp616
Rp617
(dp618
g112
Nsg113
((t(dp619
tp620
sbsg116
g596
sg117
(lp621
sg119
Nsbsg82
Nsg83
Nsg84
Nsg85
(dp622
Vclass
p623
(lp624
Vday
p625
asVrel
p626
Vday
p627
ssg92
g589
sg93
g70
sg94
I00
sg95
(lp628
g589
asbsg84
Nsg92
g585
sg69
g592
sbsg84
g592
sg92
g581
sg69
g596
sbsg20
g571
sg67
Vsmall
p629
sg69
g596
sg82
Nsg83
Nsg84
g585
sg85
(dp630
sg92
g578
sg93
g70
sg94
I00
sg95
(lp631
g578
asbsg20
Nsg67
Vabbr
p632
sg69
g581
sg82
Nsg83
Nsg84
Nsg85
(dp633
Vclass
p634
(lp635
Vdtstart
p636
asVrel
p637
Vdtstart
p638
sVtitle
p639
g547
ssg92
g575
sg93
g70
sg94
I00
sg95
(lp640
g575
asbsg84
Nsg92
g571
sg69
g578
sbsg84
g581
sg92
g568
sg69
g596
sbsg20
g558
sg67
Vsmall
p641
sg69
g596
sg82
Nsg83
Nsg84
g571
sg85
(dp642
sg92
g565
sg93
g70
sg94
I00
sg95
(lp643
g565
asbsg20
Nsg67
Vabbr
p644
sg69
g568
sg82
Nsg83
Nsg84
Nsg85
(dp645
Vclass
p646
(lp647
Vdtend
p648
asVrel
p649
Vdtend
p650
sVtitle
p651
g544
ssg92
g562
sg93
g70
sg94
I00
sg95
(lp652
g562
asbsg84
Nsg92
g558
sg69
g565
sbsg84
g568
sg92
g554
sg69
g596
sbsg20
g603
sg67
Vsmall
p653
sg69
g596
sg82
Nsg83
Nsg84
g558
sg85
(dp654
Vclass
p655
(lp656
Vlocation
p657
asVrel
p658
Vlocation
p659
ssg92
g551
sg93
g70
sg94
I00
sg95
(lp660
g551
asbsg84
Nsg92
g603
sg69
g554
sbsa(dp661
g2
V2013-02-25T17:00:00-0600
p662
sg4
VRhetoric and Discourse Studies Working Group Meeting
p663
sg6
VThe first spring meeting of the Rhetoric and Discourse Studies Working Group/A&M Student Chapter of the RSA will convene February 25, Monday, at 3:15 in the LAAH English Department Special Events Room:  LAAH 453.  Beverages and light snacks will be served. Andrea Terry and Kristina Gutierez will be presenting their  current works in progress.\u000a\u000aSource\u000ahttp://calendar.tamu.edu/?&y=2013&m=02&d=25&eventdatetime_id=14924&
p664
sg8
V2013-02-25T15:15:00-0600
p665
sg10
Vhttp://calendar.tamu.edu/?&y=2013&m=02&d=25&eventdatetime_id=14924&
p666
sg12
g13
(g14
g15
VLiberal Arts and Humanities Building (LAAH) Room:453
p667
tp668
Rp669
(dp670
g20
Nsg21
g13
(g22
g23
Ntp671
Rp672
(dp673
g27
I00
sg21
g13
(g14
g15
V | 
p674
tp675
Rp676
(dp677
g20
g672
sg21
g13
(g14
g15
V5:00 pm
p678
tp679
Rp680
(dp681
g20
Nsg21
g13
(g22
g23
Ntp682
Rp683
(dp684
g27
I00
sg21
g13
(g22
g23
Ntp685
Rp686
(dp687
g27
I00
sg21
g13
(g14
g15
g42
tp688
Rp689
(dp690
g20
g686
sg21
g13
(g14
g15
V3:15 pm
p691
tp692
Rp693
(dp694
g20
Nsg21
g13
(g22
g23
Ntp695
Rp696
(dp697
g27
I00
sg21
g13
(g22
g23
Ntp698
Rp699
(dp700
g27
I00
sg21
g13
(g14
g15
V | 
p701
tp702
Rp703
(dp704
g20
g699
sg21
g13
(g14
g15
VMonday, February 25th
p705
tp706
Rp707
(dp708
g20
Nsg21
g13
(g22
g23
Ntp709
Rp710
(dp711
g27
I00
sg21
Nsg20
g703
sg67
Vsmall
p712
sg69
g13
(g70
g23
Ntp713
Rp714
(dp715
g27
I00
sg21
g13
(g14
g15
VThe first spring meeting of the Rhetoric and Discourse Studies Working Group/A&M Student Chapter of the RSA will convene February 25, Monday, at 3:15 in the LAAH English Department Special Events Room:  LAAH 453.  Beverages and light snacks will be served. Andrea Terry and Kristina Gutierez will be presenting their  current works in progress.
p716
tp717
Rp718
(dp719
g20
Nsg21
g13
(g22
g23
Ntp720
Rp721
(dp722
g27
I00
sg21
g669
sg20
Nsg67
Vdiv
p723
sg69
g714
sg82
Nsg83
Nsg84
g672
sg85
(dp724
Vclass
p725
(lp726
Vsummary
p727
asVrel
p728
Vsummary
p729
ssg92
g718
sg93
g70
sg94
I00
sg95
(lp730
g718
asbsg84
Nsg92
Nsg69
g721
sbsg20
Nsg83
Nsg85
(dp731
sg95
(lp732
g710
ag703
ag699
ag689
ag686
ag676
ag672
ag721
asg99
(lp733
g714
asg93
g70
sg82
Nsg84
Nsg101
I00
sg92
Nsg69
Nsg102
Nsg103
I00
sg104
Nsg94
I1
sg105
Nsg67
g106
sg107
g13
(g108
g23
Ntp734
Rp735
(dp736
g112
Nsg113
((t(dp737
tp738
sbsg116
g714
sg117
(lp739
sg119
Nsbsg82
Nsg83
Nsg84
Nsg85
(dp740
Vclass
p741
(lp742
Vday
p743
asVrel
p744
Vday
p745
ssg92
g707
sg93
g70
sg94
I00
sg95
(lp746
g707
asbsg84
Nsg92
g703
sg69
g710
sbsg84
g710
sg92
g699
sg69
g714
sbsg20
g689
sg67
Vsmall
p747
sg69
g714
sg82
Nsg83
Nsg84
g703
sg85
(dp748
sg92
g696
sg93
g70
sg94
I00
sg95
(lp749
g696
asbsg20
Nsg67
Vabbr
p750
sg69
g699
sg82
Nsg83
Nsg84
Nsg85
(dp751
Vclass
p752
(lp753
Vdtstart
p754
asVrel
p755
Vdtstart
p756
sVtitle
p757
g665
ssg92
g693
sg93
g70
sg94
I00
sg95
(lp758
g693
asbsg84
Nsg92
g689
sg69
g696
sbsg84
g699
sg92
g686
sg69
g714
sbsg20
g676
sg67
Vsmall
p759
sg69
g714
sg82
Nsg83
Nsg84
g689
sg85
(dp760
sg92
g683
sg93
g70
sg94
I00
sg95
(lp761
g683
asbsg20
Nsg67
Vabbr
p762
sg69
g686
sg82
Nsg83
Nsg84
Nsg85
(dp763
Vclass
p764
(lp765
Vdtend
p766
asVrel
p767
Vdtend
p768
sVtitle
p769
g662
ssg92
g680
sg93
g70
sg94
I00
sg95
(lp770
g680
asbsg84
Nsg92
g676
sg69
g683
sbsg84
g686
sg92
g672
sg69
g714
sbsg20
g721
sg67
Vsmall
p771
sg69
g714
sg82
Nsg83
Nsg84
g676
sg85
(dp772
Vclass
p773
(lp774
Vlocation
p775
asVrel
p776
Vlocation
p777
ssg92
g669
sg93
g70
sg94
I00
sg95
(lp778
g669
asbsg84
Nsg92
g721
sg69
g672
sbsa(dp779
g2
V2013-03-18T12:30:00-0500
p780
sg4
VCritica
p781
sg6
VJoin us for a preliminary discussion about a collaborative Childhood Studies / Digital Humanities project. Prospective graduate students of the English doctoral program will be visiting to find out more about Childhood Studies at TAMU. Light lunch will be served.\u000a\u000aSource\u000ahttp://calendar.tamu.edu/?&y=2013&m=03&d=18&eventdatetime_id=15136&
p782
sg8
V2013-03-18T11:30:00-0500
p783
sg10
Vhttp://calendar.tamu.edu/?&y=2013&m=03&d=18&eventdatetime_id=15136&
p784
sg12
g13
(g14
g15
VLiberal Arts and Humanities Building (LAAH) Room:535
p785
tp786
Rp787
(dp788
g20
Nsg21
g13
(g22
g23
Ntp789
Rp790
(dp791
g27
I00
sg21
g13
(g14
g15
V | 
p792
tp793
Rp794
(dp795
g20
g790
sg21
g13
(g14
g15
V12:30 pm
p796
tp797
Rp798
(dp799
g20
Nsg21
g13
(g22
g23
Ntp800
Rp801
(dp802
g27
I00
sg21
g13
(g22
g23
Ntp803
Rp804
(dp805
g27
I00
sg21
g13
(g14
g15
g42
tp806
Rp807
(dp808
g20
g804
sg21
g13
(g14
g15
V11:30 am
p809
tp810
Rp811
(dp812
g20
Nsg21
g13
(g22
g23
Ntp813
Rp814
(dp815
g27
I00
sg21
g13
(g22
g23
Ntp816
Rp817
(dp818
g27
I00
sg21
g13
(g14
g15
V | 
p819
tp820
Rp821
(dp822
g20
g817
sg21
g13
(g14
g15
VMonday, March 18th
p823
tp824
Rp825
(dp826
g20
Nsg21
g13
(g22
g23
Ntp827
Rp828
(dp829
g27
I00
sg21
Nsg20
g821
sg67
Vsmall
p830
sg69
g13
(g70
g23
Ntp831
Rp832
(dp833
g27
I00
sg21
g13
(g14
g15
VJoin us for a preliminary discussion about a collaborative Childhood Studies / Digital Humanities project. Prospective graduate students of the English doctoral program will be visiting to find out more about Childhood Studies at TAMU. Light lunch will be served.
p834
tp835
Rp836
(dp837
g20
Nsg21
g13
(g22
g23
Ntp838
Rp839
(dp840
g27
I00
sg21
g787
sg20
Nsg67
Vdiv
p841
sg69
g832
sg82
Nsg83
Nsg84
g790
sg85
(dp842
Vclass
p843
(lp844
Vsummary
p845
asVrel
p846
Vsummary
p847
ssg92
g836
sg93
g70
sg94
I00
sg95
(lp848
g836
asbsg84
Nsg92
Nsg69
g839
sbsg20
Nsg83
Nsg85
(dp849
sg95
(lp850
g828
ag821
ag817
ag807
ag804
ag794
ag790
ag839
asg99
(lp851
g832
asg93
g70
sg82
Nsg84
Nsg101
I00
sg92
Nsg69
Nsg102
Nsg103
I00
sg104
Nsg94
I1
sg105
Nsg67
g106
sg107
g13
(g108
g23
Ntp852
Rp853
(dp854
g112
Nsg113
((t(dp855
tp856
sbsg116
g832
sg117
(lp857
sg119
Nsbsg82
Nsg83
Nsg84
Nsg85
(dp858
Vclass
p859
(lp860
Vday
p861
asVrel
p862
Vday
p863
ssg92
g825
sg93
g70
sg94
I00
sg95
(lp864
g825
asbsg84
Nsg92
g821
sg69
g828
sbsg84
g828
sg92
g817
sg69
g832
sbsg20
g807
sg67
Vsmall
p865
sg69
g832
sg82
Nsg83
Nsg84
g821
sg85
(dp866
sg92
g814
sg93
g70
sg94
I00
sg95
(lp867
g814
asbsg20
Nsg67
Vabbr
p868
sg69
g817
sg82
Nsg83
Nsg84
Nsg85
(dp869
Vclass
p870
(lp871
Vdtstart
p872
asVrel
p873
Vdtstart
p874
sVtitle
p875
g783
ssg92
g811
sg93
g70
sg94
I00
sg95
(lp876
g811
asbsg84
Nsg92
g807
sg69
g814
sbsg84
g817
sg92
g804
sg69
g832
sbsg20
g794
sg67
Vsmall
p877
sg69
g832
sg82
Nsg83
Nsg84
g807
sg85
(dp878
sg92
g801
sg93
g70
sg94
I00
sg95
(lp879
g801
asbsg20
Nsg67
Vabbr
p880
sg69
g804
sg82
Nsg83
Nsg84
Nsg85
(dp881
Vclass
p882
(lp883
Vdtend
p884
asVrel
p885
Vdtend
p886
sVtitle
p887
g780
ssg92
g798
sg93
g70
sg94
I00
sg95
(lp888
g798
asbsg84
Nsg92
g794
sg69
g801
sbsg84
g804
sg92
g790
sg69
g832
sbsg20
g839
sg67
Vsmall
p889
sg69
g832
sg82
Nsg83
Nsg84
g794
sg85
(dp890
Vclass
p891
(lp892
Vlocation
p893
asVrel
p894
Vlocation
p895
ssg92
g787
sg93
g70
sg94
I00
sg95
(lp896
g787
asbsg84
Nsg92
g839
sg69
g790
sbsa(dp897
g2
V2013-04-16T00:00:00-0500
p898
sg4
VAnnual Parking Permit Registration
p899
sg6
VRegister online April 10 - July 9 at transport.tamu.edu. There is no advantage to registering earlier in the registration process; however, registrations must be completed by July 9 to be assigned a permit with the first distribution. Registrations completed after the July 9 deadline will be assigned on a first come, first served basis based on the remaining availability.\u000a\u000aSource\u000ahttp://calendar.tamu.edu/?&y=2013&m=04&d=10&eventdatetime_id=15170&
p900
sg8
V2013-04-10T00:00:00-0500
p901
sg10
Vhttp://calendar.tamu.edu/?&y=2013&m=04&d=10&eventdatetime_id=15170&
p902
sg12
g13
(g14
g15
V Texas A&M University
p903
tp904
Rp905
(dp906
g20
Nsg21
g13
(g22
g23
Ntp907
Rp908
(dp909
g27
I00
sg21
g13
(g14
g15
V | 
p910
tp911
Rp912
(dp913
g20
g908
sg21
g13
(g14
g15
V12:00 am
p914
tp915
Rp916
(dp917
g20
Nsg21
g13
(g22
g23
Ntp918
Rp919
(dp920
g27
I00
sg21
g13
(g22
g23
Ntp921
Rp922
(dp923
g27
I00
sg21
g13
(g14
g15
g42
tp924
Rp925
(dp926
g20
g922
sg21
g13
(g14
g15
VAll day
p927
tp928
Rp929
(dp930
g20
Nsg21
g13
(g22
g23
Ntp931
Rp932
(dp933
g27
I00
sg21
g13
(g22
g23
Ntp934
Rp935
(dp936
g27
I00
sg21
g13
(g14
g15
V | 
p937
tp938
Rp939
(dp940
g20
g935
sg21
g13
(g14
g15
VWednesday, April 10th
p941
tp942
Rp943
(dp944
g20
Nsg21
g13
(g22
g23
Ntp945
Rp946
(dp947
g27
I00
sg21
Nsg20
g939
sg67
Vsmall
p948
sg69
g13
(g70
g23
Ntp949
Rp950
(dp951
g27
I00
sg21
g13
(g14
g15
VRegister online April 10 - July 9 at transport.tamu.edu. There is no advantage to registering earlier in the registration process; however, registrations must be completed by July 9 to be assigned a permit with the first distribution. Registrations completed after the July 9 deadline will be assigned on a first come, first served basis based on the remaining availability.
p952
tp953
Rp954
(dp955
g20
Nsg21
g13
(g22
g23
Ntp956
Rp957
(dp958
g27
I00
sg21
g905
sg20
Nsg67
Vdiv
p959
sg69
g950
sg82
Nsg83
Nsg84
g908
sg85
(dp960
Vclass
p961
(lp962
Vsummary
p963
asVrel
p964
Vsummary
p965
ssg92
g954
sg93
g70
sg94
I00
sg95
(lp966
g954
asbsg84
Nsg92
Nsg69
g957
sbsg20
Nsg83
Nsg85
(dp967
sg95
(lp968
g946
ag939
ag935
ag925
ag922
ag912
ag908
ag957
asg99
(lp969
g950
asg93
g70
sg82
Nsg84
Nsg101
I00
sg92
Nsg69
Nsg102
Nsg103
I00
sg104
Nsg94
I1
sg105
Nsg67
g106
sg107
g13
(g108
g23
Ntp970
Rp971
(dp972
g112
Nsg113
((t(dp973
tp974
sbsg116
g950
sg117
(lp975
sg119
Nsbsg82
Nsg83
Nsg84
Nsg85
(dp976
Vclass
p977
(lp978
Vday
p979
asVrel
p980
Vday
p981
ssg92
g943
sg93
g70
sg94
I00
sg95
(lp982
g943
asbsg84
Nsg92
g939
sg69
g946
sbsg84
g946
sg92
g935
sg69
g950
sbsg20
g925
sg67
Vsmall
p983
sg69
g950
sg82
Nsg83
Nsg84
g939
sg85
(dp984
sg92
g932
sg93
g70
sg94
I00
sg95
(lp985
g932
asbsg20
Nsg67
Vabbr
p986
sg69
g935
sg82
Nsg83
Nsg84
Nsg85
(dp987
Vclass
p988
(lp989
Vdtstart
p990
asVrel
p991
Vdtstart
p992
sVtitle
p993
g901
ssg92
g929
sg93
g70
sg94
I00
sg95
(lp994
g929
asbsg84
Nsg92
g925
sg69
g932
sbsg84
g935
sg92
g922
sg69
g950
sbsg20
g912
sg67
Vsmall
p995
sg69
g950
sg82
Nsg83
Nsg84
g925
sg85
(dp996
sg92
g919
sg93
g70
sg94
I00
sg95
(lp997
g919
asbsg20
Nsg67
Vabbr
p998
sg69
g922
sg82
Nsg83
Nsg84
Nsg85
(dp999
Vclass
p1000
(lp1001
Vdtend
p1002
asVrel
p1003
Vdtend
p1004
sVtitle
p1005
g898
ssg92
g916
sg93
g70
sg94
I00
sg95
(lp1006
g916
asbsg84
Nsg92
g912
sg69
g919
sbsg84
g922
sg92
g908
sg69
g950
sbsg20
g957
sg67
Vsmall
p1007
sg69
g950
sg82
Nsg83
Nsg84
g912
sg85
(dp1008
Vclass
p1009
(lp1010
Vlocation
p1011
asVrel
p1012
Vlocation
p1013
ssg92
g905
sg93
g70
sg94
I00
sg95
(lp1014
g905
asbsg84
Nsg92
g957
sg69
g908
sbsa(dp1015
g2
V2013-04-16T00:00:00-0500
p1016
sg4
VAnnual Parking Permit Registration
p1017
sg6
VRegister online April 10 - July 9 at transport.tamu.edu. There is no advantage to registering earlier in the registration process; however, registrations must be completed by July 9 to be assigned a permit with the first distribution. Registrations completed after the July 9 deadline will be assigned on a first come, first served basis based on the remaining availability.\u000a\u000aSource\u000ahttp://calendar.tamu.edu/?&y=2013&m=04&d=10&eventdatetime_id=15170&
p1018
sg8
V2013-04-10T00:00:00-0500
p1019
sg10
Vhttp://calendar.tamu.edu/?&y=2013&m=04&d=10&eventdatetime_id=15170&
p1020
sg12
g13
(g14
g15
V Texas A&M University
p1021
tp1022
Rp1023
(dp1024
g20
Nsg21
g13
(g22
g23
Ntp1025
Rp1026
(dp1027
g27
I00
sg21
g13
(g14
g15
V | 
p1028
tp1029
Rp1030
(dp1031
g20
g1026
sg21
g13
(g14
g15
V12:00 am
p1032
tp1033
Rp1034
(dp1035
g20
Nsg21
g13
(g22
g23
Ntp1036
Rp1037
(dp1038
g27
I00
sg21
g13
(g22
g23
Ntp1039
Rp1040
(dp1041
g27
I00
sg21
g13
(g14
g15
g42
tp1042
Rp1043
(dp1044
g20
g1040
sg21
g13
(g14
g15
VAll day
p1045
tp1046
Rp1047
(dp1048
g20
Nsg21
g13
(g22
g23
Ntp1049
Rp1050
(dp1051
g27
I00
sg21
g13
(g22
g23
Ntp1052
Rp1053
(dp1054
g27
I00
sg21
g13
(g14
g15
V | 
p1055
tp1056
Rp1057
(dp1058
g20
g1053
sg21
g13
(g14
g15
VWednesday, April 10th
p1059
tp1060
Rp1061
(dp1062
g20
Nsg21
g13
(g22
g23
Ntp1063
Rp1064
(dp1065
g27
I00
sg21
Nsg20
g1057
sg67
Vsmall
p1066
sg69
g13
(g70
g23
Ntp1067
Rp1068
(dp1069
g27
I00
sg21
g13
(g14
g15
VRegister online April 10 - July 9 at transport.tamu.edu. There is no advantage to registering earlier in the registration process; however, registrations must be completed by July 9 to be assigned a permit with the first distribution. Registrations completed after the July 9 deadline will be assigned on a first come, first served basis based on the remaining availability.
p1070
tp1071
Rp1072
(dp1073
g20
Nsg21
g13
(g22
g23
Ntp1074
Rp1075
(dp1076
g27
I00
sg21
g1023
sg20
Nsg67
Vdiv
p1077
sg69
g1068
sg82
Nsg83
Nsg84
g1026
sg85
(dp1078
Vclass
p1079
(lp1080
Vsummary
p1081
asVrel
p1082
Vsummary
p1083
ssg92
g1072
sg93
g70
sg94
I00
sg95
(lp1084
g1072
asbsg84
Nsg92
Nsg69
g1075
sbsg20
Nsg83
Nsg85
(dp1085
sg95
(lp1086
g1064
ag1057
ag1053
ag1043
ag1040
ag1030
ag1026
ag1075
asg99
(lp1087
g1068
asg93
g70
sg82
Nsg84
Nsg101
I00
sg92
Nsg69
Nsg102
Nsg103
I00
sg104
Nsg94
I1
sg105
Nsg67
g106
sg107
g13
(g108
g23
Ntp1088
Rp1089
(dp1090
g112
Nsg113
((t(dp1091
tp1092
sbsg116
g1068
sg117
(lp1093
sg119
Nsbsg82
Nsg83
Nsg84
Nsg85
(dp1094
Vclass
p1095
(lp1096
Vday
p1097
asVrel
p1098
Vday
p1099
ssg92
g1061
sg93
g70
sg94
I00
sg95
(lp1100
g1061
asbsg84
Nsg92
g1057
sg69
g1064
sbsg84
g1064
sg92
g1053
sg69
g1068
sbsg20
g1043
sg67
Vsmall
p1101
sg69
g1068
sg82
Nsg83
Nsg84
g1057
sg85
(dp1102
sg92
g1050
sg93
g70
sg94
I00
sg95
(lp1103
g1050
asbsg20
Nsg67
Vabbr
p1104
sg69
g1053
sg82
Nsg83
Nsg84
Nsg85
(dp1105
Vclass
p1106
(lp1107
Vdtstart
p1108
asVrel
p1109
Vdtstart
p1110
sVtitle
p1111
g1019
ssg92
g1047
sg93
g70
sg94
I00
sg95
(lp1112
g1047
asbsg84
Nsg92
g1043
sg69
g1050
sbsg84
g1053
sg92
g1040
sg69
g1068
sbsg20
g1030
sg67
Vsmall
p1113
sg69
g1068
sg82
Nsg83
Nsg84
g1043
sg85
(dp1114
sg92
g1037
sg93
g70
sg94
I00
sg95
(lp1115
g1037
asbsg20
Nsg67
Vabbr
p1116
sg69
g1040
sg82
Nsg83
Nsg84
Nsg85
(dp1117
Vclass
p1118
(lp1119
Vdtend
p1120
asVrel
p1121
Vdtend
p1122
sVtitle
p1123
g1016
ssg92
g1034
sg93
g70
sg94
I00
sg95
(lp1124
g1034
asbsg84
Nsg92
g1030
sg69
g1037
sbsg84
g1040
sg92
g1026
sg69
g1068
sbsg20
g1075
sg67
Vsmall
p1125
sg69
g1068
sg82
Nsg83
Nsg84
g1030
sg85
(dp1126
Vclass
p1127
(lp1128
Vlocation
p1129
asVrel
p1130
Vlocation
p1131
ssg92
g1023
sg93
g70
sg94
I00
sg95
(lp1132
g1023
asbsg84
Nsg92
g1075
sg69
g1026
sbsa(dp1133
g2
V2013-04-12T16:00:00-0500
p1134
sg4
VALEC Awards Reception
p1135
sg6
VThe department of Agricultural Leadership, Education, & Communication invites donors, former students, parents, and scholarship and award recipients to their 2nd Annual ALEC Awards Reception. Please RSVP by April 1st and include the name of your guests.  Light hors d'oeuvres and refreshments will be served. For more information, please visit alec.tamu.edu/formerstudents\u000a\u000aSource\u000ahttp://calendar.tamu.edu/?&y=2013&m=04&d=12&eventdatetime_id=14634&
p1136
sg8
V2013-04-12T14:00:00-0500
p1137
sg10
Vhttp://calendar.tamu.edu/?&y=2013&m=04&d=12&eventdatetime_id=14634&
p1138
sg12
g13
(g14
g15
VAgrilife Center  (AGCT)
p1139
tp1140
Rp1141
(dp1142
g20
Nsg21
g13
(g22
g23
Ntp1143
Rp1144
(dp1145
g27
I00
sg21
g13
(g14
g15
V | 
p1146
tp1147
Rp1148
(dp1149
g20
g1144
sg21
g13
(g14
g15
V4:00 pm
p1150
tp1151
Rp1152
(dp1153
g20
Nsg21
g13
(g22
g23
Ntp1154
Rp1155
(dp1156
g27
I00
sg21
g13
(g22
g23
Ntp1157
Rp1158
(dp1159
g27
I00
sg21
g13
(g14
g15
g42
tp1160
Rp1161
(dp1162
g20
g1158
sg21
g13
(g14
g15
V2:00 pm
p1163
tp1164
Rp1165
(dp1166
g20
Nsg21
g13
(g22
g23
Ntp1167
Rp1168
(dp1169
g27
I00
sg21
g13
(g22
g23
Ntp1170
Rp1171
(dp1172
g27
I00
sg21
g13
(g14
g15
V | 
p1173
tp1174
Rp1175
(dp1176
g20
g1171
sg21
g13
(g14
g15
VFriday, April 12th
p1177
tp1178
Rp1179
(dp1180
g20
Nsg21
g13
(g22
g23
Ntp1181
Rp1182
(dp1183
g27
I00
sg21
g13
(g14
g15
VDonor & Scholarship Recognition Event
p1184
tp1185
Rp1186
(dp1187
g20
Nsg21
g13
(g22
g23
Ntp1188
Rp1189
(dp1190
g27
I00
sg21
Nsg20
g1182
sg67
Vdiv
p1191
sg69
g13
(g70
g23
Ntp1192
Rp1193
(dp1194
g27
I00
sg21
g13
(g14
g15
VThe department of Agricultural Leadership, Education, & Communication invites donors, former students, parents, and scholarship and award recipients to their 2nd Annual ALEC Awards Reception. Please RSVP by April 1st and include the name of your guests.  Light hors d'oeuvres and refreshments will be served. For more information, please visit alec.tamu.edu/formerstudents
p1195
tp1196
Rp1197
(dp1198
g20
Nsg21
g13
(g22
g23
Ntp1199
Rp1200
(dp1201
g27
I00
sg21
g1141
sg20
Nsg67
Vdiv
p1202
sg69
g1193
sg82
Nsg83
Nsg84
g1144
sg85
(dp1203
Vclass
p1204
(lp1205
Vsummary
p1206
asVrel
p1207
Vsummary
p1208
ssg92
g1197
sg93
g70
sg94
I00
sg95
(lp1209
g1197
asbsg84
Nsg92
Nsg69
g1200
sbsg20
Nsg83
Nsg85
(dp1210
sg95
(lp1211
g1189
ag1182
ag1175
ag1171
ag1161
ag1158
ag1148
ag1144
ag1200
asg99
(lp1212
g1193
asg93
g70
sg82
Nsg84
Nsg101
I00
sg92
Nsg69
Nsg102
Nsg103
I00
sg104
Nsg94
I1
sg105
Nsg67
g106
sg107
g13
(g108
g23
Ntp1213
Rp1214
(dp1215
g112
Nsg113
((t(dp1216
tp1217
sbsg116
g1193
sg117
(lp1218
sg119
Nsbsg82
Nsg83
Nsg84
Nsg85
(dp1219
Vclass
p1220
(lp1221
Vsubtitle
p1222
asVrel
p1223
Vsubtitle
p1224
ssg92
g1186
sg93
g70
sg94
I00
sg95
(lp1225
g1186
asbsg84
Nsg92
g1182
sg69
g1189
sbsg20
g1175
sg67
Vsmall
p1226
sg69
g1193
sg82
Nsg83
Nsg84
g1189
sg85
(dp1227
Vclass
p1228
(lp1229
Vday
p1230
asVrel
p1231
Vday
p1232
ssg92
g1179
sg93
g70
sg94
I00
sg95
(lp1233
g1179
asbsg84
Nsg92
g1175
sg69
g1182
sbsg84
g1182
sg92
g1171
sg69
g1193
sbsg20
g1161
sg67
Vsmall
p1234
sg69
g1193
sg82
Nsg83
Nsg84
g1175
sg85
(dp1235
sg92
g1168
sg93
g70
sg94
I00
sg95
(lp1236
g1168
asbsg20
Nsg67
Vabbr
p1237
sg69
g1171
sg82
Nsg83
Nsg84
Nsg85
(dp1238
Vclass
p1239
(lp1240
Vdtstart
p1241
asVrel
p1242
Vdtstart
p1243
sVtitle
p1244
g1137
ssg92
g1165
sg93
g70
sg94
I00
sg95
(lp1245
g1165
asbsg84
Nsg92
g1161
sg69
g1168
sbsg84
g1171
sg92
g1158
sg69
g1193
sbsg20
g1148
sg67
Vsmall
p1246
sg69
g1193
sg82
Nsg83
Nsg84
g1161
sg85
(dp1247
sg92
g1155
sg93
g70
sg94
I00
sg95
(lp1248
g1155
asbsg20
Nsg67
Vabbr
p1249
sg69
g1158
sg82
Nsg83
Nsg84
Nsg85
(dp1250
Vclass
p1251
(lp1252
Vdtend
p1253
asVrel
p1254
Vdtend
p1255
sVtitle
p1256
g1134
ssg92
g1152
sg93
g70
sg94
I00
sg95
(lp1257
g1152
asbsg84
Nsg92
g1148
sg69
g1155
sbsg84
g1158
sg92
g1144
sg69
g1193
sbsg20
g1200
sg67
Vsmall
p1258
sg69
g1193
sg82
Nsg83
Nsg84
g1148
sg85
(dp1259
Vclass
p1260
(lp1261
Vlocation
p1262
asVrel
p1263
Vlocation
p1264
ssg92
g1141
sg93
g70
sg94
I00
sg95
(lp1265
g1141
asbsg84
Nsg92
g1200
sg69
g1144
sbsa(dp1266
g2
V2013-04-16T00:00:00-0500
p1267
sg4
VAnnual Parking Permit Registration
p1268
sg6
VRegister online April 10 - July 9 at transport.tamu.edu. There is no advantage to registering earlier in the registration process; however, registrations must be completed by July 9 to be assigned a permit with the first distribution. Registrations completed after the July 9 deadline will be assigned on a first come, first served basis based on the remaining availability.\u000a\u000aSource\u000ahttp://calendar.tamu.edu/?&y=2013&m=04&d=10&eventdatetime_id=15170&
p1269
sg8
V2013-04-10T00:00:00-0500
p1270
sg10
Vhttp://calendar.tamu.edu/?&y=2013&m=04&d=10&eventdatetime_id=15170&
p1271
sg12
g13
(g14
g15
V Texas A&M University
p1272
tp1273
Rp1274
(dp1275
g20
Nsg21
g13
(g22
g23
Ntp1276
Rp1277
(dp1278
g27
I00
sg21
g13
(g14
g15
V | 
p1279
tp1280
Rp1281
(dp1282
g20
g1277
sg21
g13
(g14
g15
V12:00 am
p1283
tp1284
Rp1285
(dp1286
g20
Nsg21
g13
(g22
g23
Ntp1287
Rp1288
(dp1289
g27
I00
sg21
g13
(g22
g23
Ntp1290
Rp1291
(dp1292
g27
I00
sg21
g13
(g14
g15
g42
tp1293
Rp1294
(dp1295
g20
g1291
sg21
g13
(g14
g15
VAll day
p1296
tp1297
Rp1298
(dp1299
g20
Nsg21
g13
(g22
g23
Ntp1300
Rp1301
(dp1302
g27
I00
sg21
g13
(g22
g23
Ntp1303
Rp1304
(dp1305
g27
I00
sg21
g13
(g14
g15
V | 
p1306
tp1307
Rp1308
(dp1309
g20
g1304
sg21
g13
(g14
g15
VWednesday, April 10th
p1310
tp1311
Rp1312
(dp1313
g20
Nsg21
g13
(g22
g23
Ntp1314
Rp1315
(dp1316
g27
I00
sg21
Nsg20
g1308
sg67
Vsmall
p1317
sg69
g13
(g70
g23
Ntp1318
Rp1319
(dp1320
g27
I00
sg21
g13
(g14
g15
VRegister online April 10 - July 9 at transport.tamu.edu. There is no advantage to registering earlier in the registration process; however, registrations must be completed by July 9 to be assigned a permit with the first distribution. Registrations completed after the July 9 deadline will be assigned on a first come, first served basis based on the remaining availability.
p1321
tp1322
Rp1323
(dp1324
g20
Nsg21
g13
(g22
g23
Ntp1325
Rp1326
(dp1327
g27
I00
sg21
g1274
sg20
Nsg67
Vdiv
p1328
sg69
g1319
sg82
Nsg83
Nsg84
g1277
sg85
(dp1329
Vclass
p1330
(lp1331
Vsummary
p1332
asVrel
p1333
Vsummary
p1334
ssg92
g1323
sg93
g70
sg94
I00
sg95
(lp1335
g1323
asbsg84
Nsg92
Nsg69
g1326
sbsg20
Nsg83
Nsg85
(dp1336
sg95
(lp1337
g1315
ag1308
ag1304
ag1294
ag1291
ag1281
ag1277
ag1326
asg99
(lp1338
g1319
asg93
g70
sg82
Nsg84
Nsg101
I00
sg92
Nsg69
Nsg102
Nsg103
I00
sg104
Nsg94
I1
sg105
Nsg67
g106
sg107
g13
(g108
g23
Ntp1339
Rp1340
(dp1341
g112
Nsg113
((t(dp1342
tp1343
sbsg116
g1319
sg117
(lp1344
sg119
Nsbsg82
Nsg83
Nsg84
Nsg85
(dp1345
Vclass
p1346
(lp1347
Vday
p1348
asVrel
p1349
Vday
p1350
ssg92
g1312
sg93
g70
sg94
I00
sg95
(lp1351
g1312
asbsg84
Nsg92
g1308
sg69
g1315
sbsg84
g1315
sg92
g1304
sg69
g1319
sbsg20
g1294
sg67
Vsmall
p1352
sg69
g1319
sg82
Nsg83
Nsg84
g1308
sg85
(dp1353
sg92
g1301
sg93
g70
sg94
I00
sg95
(lp1354
g1301
asbsg20
Nsg67
Vabbr
p1355
sg69
g1304
sg82
Nsg83
Nsg84
Nsg85
(dp1356
Vclass
p1357
(lp1358
Vdtstart
p1359
asVrel
p1360
Vdtstart
p1361
sVtitle
p1362
g1270
ssg92
g1298
sg93
g70
sg94
I00
sg95
(lp1363
g1298
asbsg84
Nsg92
g1294
sg69
g1301
sbsg84
g1304
sg92
g1291
sg69
g1319
sbsg20
g1281
sg67
Vsmall
p1364
sg69
g1319
sg82
Nsg83
Nsg84
g1294
sg85
(dp1365
sg92
g1288
sg93
g70
sg94
I00
sg95
(lp1366
g1288
asbsg20
Nsg67
Vabbr
p1367
sg69
g1291
sg82
Nsg83
Nsg84
Nsg85
(dp1368
Vclass
p1369
(lp1370
Vdtend
p1371
asVrel
p1372
Vdtend
p1373
sVtitle
p1374
g1267
ssg92
g1285
sg93
g70
sg94
I00
sg95
(lp1375
g1285
asbsg84
Nsg92
g1281
sg69
g1288
sbsg84
g1291
sg92
g1277
sg69
g1319
sbsg20
g1326
sg67
Vsmall
p1376
sg69
g1319
sg82
Nsg83
Nsg84
g1281
sg85
(dp1377
Vclass
p1378
(lp1379
Vlocation
p1380
asVrel
p1381
Vlocation
p1382
ssg92
g1274
sg93
g70
sg94
I00
sg95
(lp1383
g1274
asbsg84
Nsg92
g1326
sg69
g1277
sbsa(dp1384
g2
V2013-04-16T00:00:00-0500
p1385
sg4
VAnnual Parking Permit Registration
p1386
sg6
VRegister online April 10 - July 9 at transport.tamu.edu. There is no advantage to registering earlier in the registration process; however, registrations must be completed by July 9 to be assigned a permit with the first distribution. Registrations completed after the July 9 deadline will be assigned on a first come, first served basis based on the remaining availability.\u000a\u000aSource\u000ahttp://calendar.tamu.edu/?&y=2013&m=04&d=10&eventdatetime_id=15170&
p1387
sg8
V2013-04-10T00:00:00-0500
p1388
sg10
Vhttp://calendar.tamu.edu/?&y=2013&m=04&d=10&eventdatetime_id=15170&
p1389
sg12
g13
(g14
g15
V Texas A&M University
p1390
tp1391
Rp1392
(dp1393
g20
Nsg21
g13
(g22
g23
Ntp1394
Rp1395
(dp1396
g27
I00
sg21
g13
(g14
g15
V | 
p1397
tp1398
Rp1399
(dp1400
g20
g1395
sg21
g13
(g14
g15
V12:00 am
p1401
tp1402
Rp1403
(dp1404
g20
Nsg21
g13
(g22
g23
Ntp1405
Rp1406
(dp1407
g27
I00
sg21
g13
(g22
g23
Ntp1408
Rp1409
(dp1410
g27
I00
sg21
g13
(g14
g15
g42
tp1411
Rp1412
(dp1413
g20
g1409
sg21
g13
(g14
g15
VAll day
p1414
tp1415
Rp1416
(dp1417
g20
Nsg21
g13
(g22
g23
Ntp1418
Rp1419
(dp1420
g27
I00
sg21
g13
(g22
g23
Ntp1421
Rp1422
(dp1423
g27
I00
sg21
g13
(g14
g15
V | 
p1424
tp1425
Rp1426
(dp1427
g20
g1422
sg21
g13
(g14
g15
VWednesday, April 10th
p1428
tp1429
Rp1430
(dp1431
g20
Nsg21
g13
(g22
g23
Ntp1432
Rp1433
(dp1434
g27
I00
sg21
Nsg20
g1426
sg67
Vsmall
p1435
sg69
g13
(g70
g23
Ntp1436
Rp1437
(dp1438
g27
I00
sg21
g13
(g14
g15
VRegister online April 10 - July 9 at transport.tamu.edu. There is no advantage to registering earlier in the registration process; however, registrations must be completed by July 9 to be assigned a permit with the first distribution. Registrations completed after the July 9 deadline will be assigned on a first come, first served basis based on the remaining availability.
p1439
tp1440
Rp1441
(dp1442
g20
Nsg21
g13
(g22
g23
Ntp1443
Rp1444
(dp1445
g27
I00
sg21
g1392
sg20
Nsg67
Vdiv
p1446
sg69
g1437
sg82
Nsg83
Nsg84
g1395
sg85
(dp1447
Vclass
p1448
(lp1449
Vsummary
p1450
asVrel
p1451
Vsummary
p1452
ssg92
g1441
sg93
g70
sg94
I00
sg95
(lp1453
g1441
asbsg84
Nsg92
Nsg69
g1444
sbsg20
Nsg83
Nsg85
(dp1454
sg95
(lp1455
g1433
ag1426
ag1422
ag1412
ag1409
ag1399
ag1395
ag1444
asg99
(lp1456
g1437
asg93
g70
sg82
Nsg84
Nsg101
I00
sg92
Nsg69
Nsg102
Nsg103
I00
sg104
Nsg94
I1
sg105
Nsg67
g106
sg107
g13
(g108
g23
Ntp1457
Rp1458
(dp1459
g112
Nsg113
((t(dp1460
tp1461
sbsg116
g1437
sg117
(lp1462
sg119
Nsbsg82
Nsg83
Nsg84
Nsg85
(dp1463
Vclass
p1464
(lp1465
Vday
p1466
asVrel
p1467
Vday
p1468
ssg92
g1430
sg93
g70
sg94
I00
sg95
(lp1469
g1430
asbsg84
Nsg92
g1426
sg69
g1433
sbsg84
g1433
sg92
g1422
sg69
g1437
sbsg20
g1412
sg67
Vsmall
p1470
sg69
g1437
sg82
Nsg83
Nsg84
g1426
sg85
(dp1471
sg92
g1419
sg93
g70
sg94
I00
sg95
(lp1472
g1419
asbsg20
Nsg67
Vabbr
p1473
sg69
g1422
sg82
Nsg83
Nsg84
Nsg85
(dp1474
Vclass
p1475
(lp1476
Vdtstart
p1477
asVrel
p1478
Vdtstart
p1479
sVtitle
p1480
g1388
ssg92
g1416
sg93
g70
sg94
I00
sg95
(lp1481
g1416
asbsg84
Nsg92
g1412
sg69
g1419
sbsg84
g1422
sg92
g1409
sg69
g1437
sbsg20
g1399
sg67
Vsmall
p1482
sg69
g1437
sg82
Nsg83
Nsg84
g1412
sg85
(dp1483
sg92
g1406
sg93
g70
sg94
I00
sg95
(lp1484
g1406
asbsg20
Nsg67
Vabbr
p1485
sg69
g1409
sg82
Nsg83
Nsg84
Nsg85
(dp1486
Vclass
p1487
(lp1488
Vdtend
p1489
asVrel
p1490
Vdtend
p1491
sVtitle
p1492
g1385
ssg92
g1403
sg93
g70
sg94
I00
sg95
(lp1493
g1403
asbsg84
Nsg92
g1399
sg69
g1406
sbsg84
g1409
sg92
g1395
sg69
g1437
sbsg20
g1444
sg67
Vsmall
p1494
sg69
g1437
sg82
Nsg83
Nsg84
g1399
sg85
(dp1495
Vclass
p1496
(lp1497
Vlocation
p1498
asVrel
p1499
Vlocation
p1500
ssg92
g1392
sg93
g70
sg94
I00
sg95
(lp1501
g1392
asbsg84
Nsg92
g1444
sg69
g1395
sbsa(dp1502
g2
V2013-04-14T00:00:00-0500
p1503
sg4
V23rd Annual Practical Membrane/Filtration & Separations Technologies Short Course
p1504
sg6
VAttendees will review basic principles of membrane filtration and separations processing, learn about new product formulators and will be given a chance to view demonstrations in the pilot plant facilities at the Food Protein Research & Development Center.\u000a\u000aSource\u000ahttp://calendar.tamu.edu/?&y=2013&m=04&d=14&eventdatetime_id=14838&
p1505
sg8
g1503
sg10
Vhttp://calendar.tamu.edu/?&y=2013&m=04&d=14&eventdatetime_id=14838&
p1506
sg12
g13
(g14
g15
VRudder Tower (RDER)
p1507
tp1508
Rp1509
(dp1510
g20
Nsg21
g13
(g22
g23
Ntp1511
Rp1512
(dp1513
g27
I00
sg21
g13
(g14
g15
V | 
p1514
tp1515
Rp1516
(dp1517
g20
g1512
sg21
g13
(g14
g15
VAll day
p1518
tp1519
Rp1520
(dp1521
g20
Nsg21
g13
(g22
g23
Ntp1522
Rp1523
(dp1524
g27
I00
sg21
g13
(g22
g23
Ntp1525
Rp1526
(dp1527
g27
I00
sg21
g13
(g14
g15
V | 
p1528
tp1529
Rp1530
(dp1531
g20
g1526
sg21
g13
(g14
g15
VSunday, April 14th
p1532
tp1533
Rp1534
(dp1535
g20
Nsg21
g13
(g22
g23
Ntp1536
Rp1537
(dp1538
g27
I00
sg21
Nsg20
g1530
sg67
Vsmall
p1539
sg69
g13
(g70
g23
Ntp1540
Rp1541
(dp1542
g27
I00
sg21
g13
(g14
g15
VAttendees will review basic principles of membrane filtration and separations processing, learn about new product formulators and will be given a chance to view demonstrations in the pilot plant facilities at the Food Protein Research & Development Center.
p1543
tp1544
Rp1545
(dp1546
g20
Nsg21
g13
(g22
g23
Ntp1547
Rp1548
(dp1549
g27
I00
sg21
g1509
sg20
Nsg67
Vdiv
p1550
sg69
g1541
sg82
Nsg83
Nsg84
g1512
sg85
(dp1551
Vclass
p1552
(lp1553
Vsummary
p1554
asVrel
p1555
Vsummary
p1556
ssg92
g1545
sg93
g70
sg94
I00
sg95
(lp1557
g1545
asbsg84
Nsg92
Nsg69
g1548
sbsg20
Nsg83
Nsg85
(dp1558
sg95
(lp1559
g1537
ag1530
ag1526
ag1516
ag1512
ag1548
asg99
(lp1560
g1541
asg93
g70
sg82
Nsg84
Nsg101
I00
sg92
Nsg69
Nsg102
Nsg103
I00
sg104
Nsg94
I1
sg105
Nsg67
g106
sg107
g13
(g108
g23
Ntp1561
Rp1562
(dp1563
g112
Nsg113
((t(dp1564
tp1565
sbsg116
g1541
sg117
(lp1566
sg119
Nsbsg82
Nsg83
Nsg84
Nsg85
(dp1567
Vclass
p1568
(lp1569
Vday
p1570
asVrel
p1571
Vday
p1572
ssg92
g1534
sg93
g70
sg94
I00
sg95
(lp1573
g1534
asbsg84
Nsg92
g1530
sg69
g1537
sbsg84
g1537
sg92
g1526
sg69
g1541
sbsg20
g1516
sg67
Vsmall
p1574
sg69
g1541
sg82
Nsg83
Nsg84
g1530
sg85
(dp1575
sg92
g1523
sg93
g70
sg94
I00
sg95
(lp1576
g1523
asbsg20
Nsg67
Vabbr
p1577
sg69
g1526
sg82
Nsg83
Nsg84
Nsg85
(dp1578
Vclass
p1579
(lp1580
Vdtstart
p1581
asVrel
p1582
Vdtstart
p1583
sVtitle
p1584
g1503
ssg92
g1520
sg93
g70
sg94
I00
sg95
(lp1585
g1520
asbsg84
Nsg92
g1516
sg69
g1523
sbsg84
g1526
sg92
g1512
sg69
g1541
sbsg20
g1548
sg67
Vsmall
p1586
sg69
g1541
sg82
Nsg83
Nsg84
g1516
sg85
(dp1587
Vclass
p1588
(lp1589
Vlocation
p1590
asVrel
p1591
Vlocation
p1592
ssg92
g1509
sg93
g70
sg94
I00
sg95
(lp1593
g1509
asbsg84
Nsg92
g1548
sg69
g1512
sbsa(dp1594
g2
V2013-04-16T00:00:00-0500
p1595
sg4
VAnnual Parking Permit Registration
p1596
sg6
VRegister online April 10 - July 9 at transport.tamu.edu. There is no advantage to registering earlier in the registration process; however, registrations must be completed by July 9 to be assigned a permit with the first distribution. Registrations completed after the July 9 deadline will be assigned on a first come, first served basis based on the remaining availability.\u000a\u000aSource\u000ahttp://calendar.tamu.edu/?&y=2013&m=04&d=10&eventdatetime_id=15170&
p1597
sg8
V2013-04-10T00:00:00-0500
p1598
sg10
Vhttp://calendar.tamu.edu/?&y=2013&m=04&d=10&eventdatetime_id=15170&
p1599
sg12
g13
(g14
g15
V Texas A&M University
p1600
tp1601
Rp1602
(dp1603
g20
Nsg21
g13
(g22
g23
Ntp1604
Rp1605
(dp1606
g27
I00
sg21
g13
(g14
g15
V | 
p1607
tp1608
Rp1609
(dp1610
g20
g1605
sg21
g13
(g14
g15
V12:00 am
p1611
tp1612
Rp1613
(dp1614
g20
Nsg21
g13
(g22
g23
Ntp1615
Rp1616
(dp1617
g27
I00
sg21
g13
(g22
g23
Ntp1618
Rp1619
(dp1620
g27
I00
sg21
g13
(g14
g15
g42
tp1621
Rp1622
(dp1623
g20
g1619
sg21
g13
(g14
g15
VAll day
p1624
tp1625
Rp1626
(dp1627
g20
Nsg21
g13
(g22
g23
Ntp1628
Rp1629
(dp1630
g27
I00
sg21
g13
(g22
g23
Ntp1631
Rp1632
(dp1633
g27
I00
sg21
g13
(g14
g15
V | 
p1634
tp1635
Rp1636
(dp1637
g20
g1632
sg21
g13
(g14
g15
VWednesday, April 10th
p1638
tp1639
Rp1640
(dp1641
g20
Nsg21
g13
(g22
g23
Ntp1642
Rp1643
(dp1644
g27
I00
sg21
Nsg20
g1636
sg67
Vsmall
p1645
sg69
g13
(g70
g23
Ntp1646
Rp1647
(dp1648
g27
I00
sg21
g13
(g14
g15
VRegister online April 10 - July 9 at transport.tamu.edu. There is no advantage to registering earlier in the registration process; however, registrations must be completed by July 9 to be assigned a permit with the first distribution. Registrations completed after the July 9 deadline will be assigned on a first come, first served basis based on the remaining availability.
p1649
tp1650
Rp1651
(dp1652
g20
Nsg21
g13
(g22
g23
Ntp1653
Rp1654
(dp1655
g27
I00
sg21
g1602
sg20
Nsg67
Vdiv
p1656
sg69
g1647
sg82
Nsg83
Nsg84
g1605
sg85
(dp1657
Vclass
p1658
(lp1659
Vsummary
p1660
asVrel
p1661
Vsummary
p1662
ssg92
g1651
sg93
g70
sg94
I00
sg95
(lp1663
g1651
asbsg84
Nsg92
Nsg69
g1654
sbsg20
Nsg83
Nsg85
(dp1664
sg95
(lp1665
g1643
ag1636
ag1632
ag1622
ag1619
ag1609
ag1605
ag1654
asg99
(lp1666
g1647
asg93
g70
sg82
Nsg84
Nsg101
I00
sg92
Nsg69
Nsg102
Nsg103
I00
sg104
Nsg94
I1
sg105
Nsg67
g106
sg107
g13
(g108
g23
Ntp1667
Rp1668
(dp1669
g112
Nsg113
((t(dp1670
tp1671
sbsg116
g1647
sg117
(lp1672
sg119
Nsbsg82
Nsg83
Nsg84
Nsg85
(dp1673
Vclass
p1674
(lp1675
Vday
p1676
asVrel
p1677
Vday
p1678
ssg92
g1640
sg93
g70
sg94
I00
sg95
(lp1679
g1640
asbsg84
Nsg92
g1636
sg69
g1643
sbsg84
g1643
sg92
g1632
sg69
g1647
sbsg20
g1622
sg67
Vsmall
p1680
sg69
g1647
sg82
Nsg83
Nsg84
g1636
sg85
(dp1681
sg92
g1629
sg93
g70
sg94
I00
sg95
(lp1682
g1629
asbsg20
Nsg67
Vabbr
p1683
sg69
g1632
sg82
Nsg83
Nsg84
Nsg85
(dp1684
Vclass
p1685
(lp1686
Vdtstart
p1687
asVrel
p1688
Vdtstart
p1689
sVtitle
p1690
g1598
ssg92
g1626
sg93
g70
sg94
I00
sg95
(lp1691
g1626
asbsg84
Nsg92
g1622
sg69
g1629
sbsg84
g1632
sg92
g1619
sg69
g1647
sbsg20
g1609
sg67
Vsmall
p1692
sg69
g1647
sg82
Nsg83
Nsg84
g1622
sg85
(dp1693
sg92
g1616
sg93
g70
sg94
I00
sg95
(lp1694
g1616
asbsg20
Nsg67
Vabbr
p1695
sg69
g1619
sg82
Nsg83
Nsg84
Nsg85
(dp1696
Vclass
p1697
(lp1698
Vdtend
p1699
asVrel
p1700
Vdtend
p1701
sVtitle
p1702
g1595
ssg92
g1613
sg93
g70
sg94
I00
sg95
(lp1703
g1613
asbsg84
Nsg92
g1609
sg69
g1616
sbsg84
g1619
sg92
g1605
sg69
g1647
sbsg20
g1654
sg67
Vsmall
p1704
sg69
g1647
sg82
Nsg83
Nsg84
g1609
sg85
(dp1705
Vclass
p1706
(lp1707
Vlocation
p1708
asVrel
p1709
Vlocation
p1710
ssg92
g1602
sg93
g70
sg94
I00
sg95
(lp1711
g1602
asbsg84
Nsg92
g1654
sg69
g1605
sbsa(dp1712
g2
V2013-04-16T00:00:00-0500
p1713
sg4
VAnnual Parking Permit Registration
p1714
sg6
VRegister online April 10 - July 9 at transport.tamu.edu. There is no advantage to registering earlier in the registration process; however, registrations must be completed by July 9 to be assigned a permit with the first distribution. Registrations completed after the July 9 deadline will be assigned on a first come, first served basis based on the remaining availability.\u000a\u000aSource\u000ahttp://calendar.tamu.edu/?&y=2013&m=04&d=10&eventdatetime_id=15170&
p1715
sg8
V2013-04-10T00:00:00-0500
p1716
sg10
Vhttp://calendar.tamu.edu/?&y=2013&m=04&d=10&eventdatetime_id=15170&
p1717
sg12
g13
(g14
g15
V Texas A&M University
p1718
tp1719
Rp1720
(dp1721
g20
Nsg21
g13
(g22
g23
Ntp1722
Rp1723
(dp1724
g27
I00
sg21
g13
(g14
g15
V | 
p1725
tp1726
Rp1727
(dp1728
g20
g1723
sg21
g13
(g14
g15
V12:00 am
p1729
tp1730
Rp1731
(dp1732
g20
Nsg21
g13
(g22
g23
Ntp1733
Rp1734
(dp1735
g27
I00
sg21
g13
(g22
g23
Ntp1736
Rp1737
(dp1738
g27
I00
sg21
g13
(g14
g15
g42
tp1739
Rp1740
(dp1741
g20
g1737
sg21
g13
(g14
g15
VAll day
p1742
tp1743
Rp1744
(dp1745
g20
Nsg21
g13
(g22
g23
Ntp1746
Rp1747
(dp1748
g27
I00
sg21
g13
(g22
g23
Ntp1749
Rp1750
(dp1751
g27
I00
sg21
g13
(g14
g15
V | 
p1752
tp1753
Rp1754
(dp1755
g20
g1750
sg21
g13
(g14
g15
VWednesday, April 10th
p1756
tp1757
Rp1758
(dp1759
g20
Nsg21
g13
(g22
g23
Ntp1760
Rp1761
(dp1762
g27
I00
sg21
Nsg20
g1754
sg67
Vsmall
p1763
sg69
g13
(g70
g23
Ntp1764
Rp1765
(dp1766
g27
I00
sg21
g13
(g14
g15
VRegister online April 10 - July 9 at transport.tamu.edu. There is no advantage to registering earlier in the registration process; however, registrations must be completed by July 9 to be assigned a permit with the first distribution. Registrations completed after the July 9 deadline will be assigned on a first come, first served basis based on the remaining availability.
p1767
tp1768
Rp1769
(dp1770
g20
Nsg21
g13
(g22
g23
Ntp1771
Rp1772
(dp1773
g27
I00
sg21
g1720
sg20
Nsg67
Vdiv
p1774
sg69
g1765
sg82
Nsg83
Nsg84
g1723
sg85
(dp1775
Vclass
p1776
(lp1777
Vsummary
p1778
asVrel
p1779
Vsummary
p1780
ssg92
g1769
sg93
g70
sg94
I00
sg95
(lp1781
g1769
asbsg84
Nsg92
Nsg69
g1772
sbsg20
Nsg83
Nsg85
(dp1782
sg95
(lp1783
g1761
ag1754
ag1750
ag1740
ag1737
ag1727
ag1723
ag1772
asg99
(lp1784
g1765
asg93
g70
sg82
Nsg84
Nsg101
I00
sg92
Nsg69
Nsg102
Nsg103
I00
sg104
Nsg94
I1
sg105
Nsg67
g106
sg107
g13
(g108
g23
Ntp1785
Rp1786
(dp1787
g112
Nsg113
((t(dp1788
tp1789
sbsg116
g1765
sg117
(lp1790
sg119
Nsbsg82
Nsg83
Nsg84
Nsg85
(dp1791
Vclass
p1792
(lp1793
Vday
p1794
asVrel
p1795
Vday
p1796
ssg92
g1758
sg93
g70
sg94
I00
sg95
(lp1797
g1758
asbsg84
Nsg92
g1754
sg69
g1761
sbsg84
g1761
sg92
g1750
sg69
g1765
sbsg20
g1740
sg67
Vsmall
p1798
sg69
g1765
sg82
Nsg83
Nsg84
g1754
sg85
(dp1799
sg92
g1747
sg93
g70
sg94
I00
sg95
(lp1800
g1747
asbsg20
Nsg67
Vabbr
p1801
sg69
g1750
sg82
Nsg83
Nsg84
Nsg85
(dp1802
Vclass
p1803
(lp1804
Vdtstart
p1805
asVrel
p1806
Vdtstart
p1807
sVtitle
p1808
g1716
ssg92
g1744
sg93
g70
sg94
I00
sg95
(lp1809
g1744
asbsg84
Nsg92
g1740
sg69
g1747
sbsg84
g1750
sg92
g1737
sg69
g1765
sbsg20
g1727
sg67
Vsmall
p1810
sg69
g1765
sg82
Nsg83
Nsg84
g1740
sg85
(dp1811
sg92
g1734
sg93
g70
sg94
I00
sg95
(lp1812
g1734
asbsg20
Nsg67
Vabbr
p1813
sg69
g1737
sg82
Nsg83
Nsg84
Nsg85
(dp1814
Vclass
p1815
(lp1816
Vdtend
p1817
asVrel
p1818
Vdtend
p1819
sVtitle
p1820
g1713
ssg92
g1731
sg93
g70
sg94
I00
sg95
(lp1821
g1731
asbsg84
Nsg92
g1727
sg69
g1734
sbsg84
g1737
sg92
g1723
sg69
g1765
sbsg20
g1772
sg67
Vsmall
p1822
sg69
g1765
sg82
Nsg83
Nsg84
g1727
sg85
(dp1823
Vclass
p1824
(lp1825
Vlocation
p1826
asVrel
p1827
Vlocation
p1828
ssg92
g1720
sg93
g70
sg94
I00
sg95
(lp1829
g1720
asbsg84
Nsg92
g1772
sg69
g1723
sbsa(dp1830
g2
V2013-04-16T00:00:00-0500
p1831
sg4
VAnnual Parking Permit Registration
p1832
sg6
VRegister online April 10 - July 9 at transport.tamu.edu. There is no advantage to registering earlier in the registration process; however, registrations must be completed by July 9 to be assigned a permit with the first distribution. Registrations completed after the July 9 deadline will be assigned on a first come, first served basis based on the remaining availability.\u000a\u000aSource\u000ahttp://calendar.tamu.edu/?&y=2013&m=04&d=10&eventdatetime_id=15170&
p1833
sg8
V2013-04-10T00:00:00-0500
p1834
sg10
Vhttp://calendar.tamu.edu/?&y=2013&m=04&d=10&eventdatetime_id=15170&
p1835
sg12
g13
(g14
g15
V Texas A&M University
p1836
tp1837
Rp1838
(dp1839
g20
Nsg21
g13
(g22
g23
Ntp1840
Rp1841
(dp1842
g27
I00
sg21
g13
(g14
g15
V | 
p1843
tp1844
Rp1845
(dp1846
g20
g1841
sg21
g13
(g14
g15
V12:00 am
p1847
tp1848
Rp1849
(dp1850
g20
Nsg21
g13
(g22
g23
Ntp1851
Rp1852
(dp1853
g27
I00
sg21
g13
(g22
g23
Ntp1854
Rp1855
(dp1856
g27
I00
sg21
g13
(g14
g15
g42
tp1857
Rp1858
(dp1859
g20
g1855
sg21
g13
(g14
g15
VAll day
p1860
tp1861
Rp1862
(dp1863
g20
Nsg21
g13
(g22
g23
Ntp1864
Rp1865
(dp1866
g27
I00
sg21
g13
(g22
g23
Ntp1867
Rp1868
(dp1869
g27
I00
sg21
g13
(g14
g15
V | 
p1870
tp1871
Rp1872
(dp1873
g20
g1868
sg21
g13
(g14
g15
VWednesday, April 10th
p1874
tp1875
Rp1876
(dp1877
g20
Nsg21
g13
(g22
g23
Ntp1878
Rp1879
(dp1880
g27
I00
sg21
Nsg20
g1872
sg67
Vsmall
p1881
sg69
g13
(g70
g23
Ntp1882
Rp1883
(dp1884
g27
I00
sg21
g13
(g14
g15
VRegister online April 10 - July 9 at transport.tamu.edu. There is no advantage to registering earlier in the registration process; however, registrations must be completed by July 9 to be assigned a permit with the first distribution. Registrations completed after the July 9 deadline will be assigned on a first come, first served basis based on the remaining availability.
p1885
tp1886
Rp1887
(dp1888
g20
Nsg21
g13
(g22
g23
Ntp1889
Rp1890
(dp1891
g27
I00
sg21
g1838
sg20
Nsg67
Vdiv
p1892
sg69
g1883
sg82
Nsg83
Nsg84
g1841
sg85
(dp1893
Vclass
p1894
(lp1895
Vsummary
p1896
asVrel
p1897
Vsummary
p1898
ssg92
g1887
sg93
g70
sg94
I00
sg95
(lp1899
g1887
asbsg84
Nsg92
Nsg69
g1890
sbsg20
Nsg83
Nsg85
(dp1900
sg95
(lp1901
g1879
ag1872
ag1868
ag1858
ag1855
ag1845
ag1841
ag1890
asg99
(lp1902
g1883
asg93
g70
sg82
Nsg84
Nsg101
I00
sg92
Nsg69
Nsg102
Nsg103
I00
sg104
Nsg94
I1
sg105
Nsg67
g106
sg107
g13
(g108
g23
Ntp1903
Rp1904
(dp1905
g112
Nsg113
((t(dp1906
tp1907
sbsg116
g1883
sg117
(lp1908
sg119
Nsbsg82
Nsg83
Nsg84
Nsg85
(dp1909
Vclass
p1910
(lp1911
Vday
p1912
asVrel
p1913
Vday
p1914
ssg92
g1876
sg93
g70
sg94
I00
sg95
(lp1915
g1876
asbsg84
Nsg92
g1872
sg69
g1879
sbsg84
g1879
sg92
g1868
sg69
g1883
sbsg20
g1858
sg67
Vsmall
p1916
sg69
g1883
sg82
Nsg83
Nsg84
g1872
sg85
(dp1917
sg92
g1865
sg93
g70
sg94
I00
sg95
(lp1918
g1865
asbsg20
Nsg67
Vabbr
p1919
sg69
g1868
sg82
Nsg83
Nsg84
Nsg85
(dp1920
Vclass
p1921
(lp1922
Vdtstart
p1923
asVrel
p1924
Vdtstart
p1925
sVtitle
p1926
g1834
ssg92
g1862
sg93
g70
sg94
I00
sg95
(lp1927
g1862
asbsg84
Nsg92
g1858
sg69
g1865
sbsg84
g1868
sg92
g1855
sg69
g1883
sbsg20
g1845
sg67
Vsmall
p1928
sg69
g1883
sg82
Nsg83
Nsg84
g1858
sg85
(dp1929
sg92
g1852
sg93
g70
sg94
I00
sg95
(lp1930
g1852
asbsg20
Nsg67
Vabbr
p1931
sg69
g1855
sg82
Nsg83
Nsg84
Nsg85
(dp1932
Vclass
p1933
(lp1934
Vdtend
p1935
asVrel
p1936
Vdtend
p1937
sVtitle
p1938
g1831
ssg92
g1849
sg93
g70
sg94
I00
sg95
(lp1939
g1849
asbsg84
Nsg92
g1845
sg69
g1852
sbsg84
g1855
sg92
g1841
sg69
g1883
sbsg20
g1890
sg67
Vsmall
p1940
sg69
g1883
sg82
Nsg83
Nsg84
g1845
sg85
(dp1941
Vclass
p1942
(lp1943
Vlocation
p1944
asVrel
p1945
Vlocation
p1946
ssg92
g1838
sg93
g70
sg94
I00
sg95
(lp1947
g1838
asbsg84
Nsg92
g1890
sg69
g1841
sbsa(dp1948
g2
V2013-04-18T20:00:00-0500
p1949
sg4
VFused Glass Class with Crafty Sippers!
p1950
sg6
V$45 Supply Fee Per Student\u000aPre-Registration Required\u000aAges 12 and Up\u000aApril 18 at 6:00 pm \u000aIn the Forsyth Galleries\u000a\u000a\u000aFused glass is the art of designing glass pieces that will be fired in a kiln melting the glass together.  In this class you will chose different colored glass and create a design to form a 6x6 bowl.  You will learn the basic instructions on how to cut glass and use of all the tools which we will supply.  No experience is necessary.  Come prepared for fun and good food!\u000a\u000aSource\u000ahttp://calendar.tamu.edu/?&y=2013&m=04&d=18&eventdatetime_id=15404&
p1951
sg8
V2013-04-18T18:00:00-0500
p1952
sg10
Vhttp://calendar.tamu.edu/?&y=2013&m=04&d=18&eventdatetime_id=15404&
p1953
sg12
g13
(g14
g15
VForsyth Galleries Room:2nd Floor, MSC
p1954
tp1955
Rp1956
(dp1957
g20
Nsg21
g13
(g22
g23
Ntp1958
Rp1959
(dp1960
g27
I00
sg21
g13
(g14
g15
V | 
p1961
tp1962
Rp1963
(dp1964
g20
g1959
sg21
g13
(g14
g15
V8:00 pm
p1965
tp1966
Rp1967
(dp1968
g20
Nsg21
g13
(g22
g23
Ntp1969
Rp1970
(dp1971
g27
I00
sg21
g13
(g22
g23
Ntp1972
Rp1973
(dp1974
g27
I00
sg21
g13
(g14
g15
g42
tp1975
Rp1976
(dp1977
g20
g1973
sg21
g13
(g14
g15
V6:00 pm
p1978
tp1979
Rp1980
(dp1981
g20
Nsg21
g13
(g22
g23
Ntp1982
Rp1983
(dp1984
g27
I00
sg21
g13
(g22
g23
Ntp1985
Rp1986
(dp1987
g27
I00
sg21
g13
(g14
g15
V | 
p1988
tp1989
Rp1990
(dp1991
g20
g1986
sg21
g13
(g14
g15
VThursday, April 18th
p1992
tp1993
Rp1994
(dp1995
g20
Nsg21
g13
(g22
g23
Ntp1996
Rp1997
(dp1998
g27
I00
sg21
Nsg20
g1990
sg67
Vsmall
p1999
sg69
g13
(g70
g23
Ntp2000
Rp2001
(dp2002
g27
I00
sg21
g13
(g14
g15
V$45 Supply Fee Per Student\u000aPre-Registration Required\u000aAges 12 and Up\u000aApril 18 at 6:00 pm \u000aIn the Forsyth Galleries\u000a\u000a\u000aFused glass is the art of designing glass pieces that will be fired in a kiln melting the glass together.  In this class you will chose different colored glass and create a design to form a 6x6 bowl.  You will learn the basic instructions on how to cut glass and use of all the tools which we will supply.  No experience is necessary.  Come prepared for fun and good food!
p2003
tp2004
Rp2005
(dp2006
g20
Nsg21
g13
(g22
g23
Ntp2007
Rp2008
(dp2009
g27
I00
sg21
g1956
sg20
Nsg67
Vdiv
p2010
sg69
g2001
sg82
Nsg83
Nsg84
g1959
sg85
(dp2011
Vclass
p2012
(lp2013
Vsummary
p2014
asVrel
p2015
Vsummary
p2016
ssg92
g2005
sg93
g70
sg94
I00
sg95
(lp2017
g2005
asbsg84
Nsg92
Nsg69
g2008
sbsg20
Nsg83
Nsg85
(dp2018
sg95
(lp2019
g1997
ag1990
ag1986
ag1976
ag1973
ag1963
ag1959
ag2008
asg99
(lp2020
g2001
asg93
g70
sg82
Nsg84
Nsg101
I00
sg92
Nsg69
Nsg102
Nsg103
I00
sg104
Nsg94
I1
sg105
Nsg67
g106
sg107
g13
(g108
g23
Ntp2021
Rp2022
(dp2023
g112
Nsg113
((t(dp2024
tp2025
sbsg116
g2001
sg117
(lp2026
sg119
Nsbsg82
Nsg83
Nsg84
Nsg85
(dp2027
Vclass
p2028
(lp2029
Vday
p2030
asVrel
p2031
Vday
p2032
ssg92
g1994
sg93
g70
sg94
I00
sg95
(lp2033
g1994
asbsg84
Nsg92
g1990
sg69
g1997
sbsg84
g1997
sg92
g1986
sg69
g2001
sbsg20
g1976
sg67
Vsmall
p2034
sg69
g2001
sg82
Nsg83
Nsg84
g1990
sg85
(dp2035
sg92
g1983
sg93
g70
sg94
I00
sg95
(lp2036
g1983
asbsg20
Nsg67
Vabbr
p2037
sg69
g1986
sg82
Nsg83
Nsg84
Nsg85
(dp2038
Vclass
p2039
(lp2040
Vdtstart
p2041
asVrel
p2042
Vdtstart
p2043
sVtitle
p2044
g1952
ssg92
g1980
sg93
g70
sg94
I00
sg95
(lp2045
g1980
asbsg84
Nsg92
g1976
sg69
g1983
sbsg84
g1986
sg92
g1973
sg69
g2001
sbsg20
g1963
sg67
Vsmall
p2046
sg69
g2001
sg82
Nsg83
Nsg84
g1976
sg85
(dp2047
sg92
g1970
sg93
g70
sg94
I00
sg95
(lp2048
g1970
asbsg20
Nsg67
Vabbr
p2049
sg69
g1973
sg82
Nsg83
Nsg84
Nsg85
(dp2050
Vclass
p2051
(lp2052
Vdtend
p2053
asVrel
p2054
Vdtend
p2055
sVtitle
p2056
g1949
ssg92
g1967
sg93
g70
sg94
I00
sg95
(lp2057
g1967
asbsg84
Nsg92
g1963
sg69
g1970
sbsg84
g1973
sg92
g1959
sg69
g2001
sbsg20
g2008
sg67
Vsmall
p2058
sg69
g2001
sg82
Nsg83
Nsg84
g1963
sg85
(dp2059
Vclass
p2060
(lp2061
Vlocation
p2062
asVrel
p2063
Vlocation
p2064
ssg92
g1956
sg93
g70
sg94
I00
sg95
(lp2065
g1956
asbsg84
Nsg92
g2008
sg69
g1959
sbsa(dp2066
g2
V2013-05-06T11:30:00-0500
p2067
sg4
VBlue Bell Lecture: Food Policy and Trade
p2068
sg6
VThe College of Agriculture and Life Sciences recognizes there are several grand challenges facing society today - especially in light of the ever-growing population. Join us at this special Blue Bell Lecture Series presentation as we discuss food policy and trade with Dr. Robert L. Thompson from Johns Hopkins University.\u000a\u000aSource\u000ahttp://calendar.tamu.edu/?&y=2013&m=05&d=06&eventdatetime_id=15539&
p2069
sg8
V2013-05-06T10:30:00-0500
p2070
sg10
Vhttp://calendar.tamu.edu/?&y=2013&m=05&d=06&eventdatetime_id=15539&
p2071
sg12
g13
(g14
g15
VAgrilife Center  (AGCT)
p2072
tp2073
Rp2074
(dp2075
g20
Nsg21
g13
(g22
g23
Ntp2076
Rp2077
(dp2078
g27
I00
sg21
g13
(g14
g15
V | 
p2079
tp2080
Rp2081
(dp2082
g20
g2077
sg21
g13
(g14
g15
V11:30 am
p2083
tp2084
Rp2085
(dp2086
g20
Nsg21
g13
(g22
g23
Ntp2087
Rp2088
(dp2089
g27
I00
sg21
g13
(g22
g23
Ntp2090
Rp2091
(dp2092
g27
I00
sg21
g13
(g14
g15
g42
tp2093
Rp2094
(dp2095
g20
g2091
sg21
g13
(g14
g15
V10:30 am
p2096
tp2097
Rp2098
(dp2099
g20
Nsg21
g13
(g22
g23
Ntp2100
Rp2101
(dp2102
g27
I00
sg21
g13
(g22
g23
Ntp2103
Rp2104
(dp2105
g27
I00
sg21
g13
(g14
g15
V | 
p2106
tp2107
Rp2108
(dp2109
g20
g2104
sg21
g13
(g14
g15
VMonday, May 6th
p2110
tp2111
Rp2112
(dp2113
g20
Nsg21
g13
(g22
g23
Ntp2114
Rp2115
(dp2116
g27
I00
sg21
g13
(g14
g15
VSharing a Vision for this Grand Challenge
p2117
tp2118
Rp2119
(dp2120
g20
Nsg21
g13
(g22
g23
Ntp2121
Rp2122
(dp2123
g27
I00
sg21
Nsg20
g2115
sg67
Vdiv
p2124
sg69
g13
(g70
g23
Ntp2125
Rp2126
(dp2127
g27
I00
sg21
g13
(g14
g15
VThe College of Agriculture and Life Sciences recognizes there are several grand challenges facing society today - especially in light of the ever-growing population. Join us at this special Blue Bell Lecture Series presentation as we discuss food policy and trade with Dr. Robert L. Thompson from Johns Hopkins University.
p2128
tp2129
Rp2130
(dp2131
g20
Nsg21
g13
(g22
g23
Ntp2132
Rp2133
(dp2134
g27
I00
sg21
g2074
sg20
Nsg67
Vdiv
p2135
sg69
g2126
sg82
Nsg83
Nsg84
g2077
sg85
(dp2136
Vclass
p2137
(lp2138
Vsummary
p2139
asVrel
p2140
Vsummary
p2141
ssg92
g2130
sg93
g70
sg94
I00
sg95
(lp2142
g2130
asbsg84
Nsg92
Nsg69
g2133
sbsg20
Nsg83
Nsg85
(dp2143
sg95
(lp2144
g2122
ag2115
ag2108
ag2104
ag2094
ag2091
ag2081
ag2077
ag2133
asg99
(lp2145
g2126
asg93
g70
sg82
Nsg84
Nsg101
I00
sg92
Nsg69
Nsg102
Nsg103
I00
sg104
Nsg94
I1
sg105
Nsg67
g106
sg107
g13
(g108
g23
Ntp2146
Rp2147
(dp2148
g112
Nsg113
((t(dp2149
tp2150
sbsg116
g2126
sg117
(lp2151
sg119
Nsbsg82
Nsg83
Nsg84
Nsg85
(dp2152
Vclass
p2153
(lp2154
Vsubtitle
p2155
asVrel
p2156
Vsubtitle
p2157
ssg92
g2119
sg93
g70
sg94
I00
sg95
(lp2158
g2119
asbsg84
Nsg92
g2115
sg69
g2122
sbsg20
g2108
sg67
Vsmall
p2159
sg69
g2126
sg82
Nsg83
Nsg84
g2122
sg85
(dp2160
Vclass
p2161
(lp2162
Vday
p2163
asVrel
p2164
Vday
p2165
ssg92
g2112
sg93
g70
sg94
I00
sg95
(lp2166
g2112
asbsg84
Nsg92
g2108
sg69
g2115
sbsg84
g2115
sg92
g2104
sg69
g2126
sbsg20
g2094
sg67
Vsmall
p2167
sg69
g2126
sg82
Nsg83
Nsg84
g2108
sg85
(dp2168
sg92
g2101
sg93
g70
sg94
I00
sg95
(lp2169
g2101
asbsg20
Nsg67
Vabbr
p2170
sg69
g2104
sg82
Nsg83
Nsg84
Nsg85
(dp2171
Vclass
p2172
(lp2173
Vdtstart
p2174
asVrel
p2175
Vdtstart
p2176
sVtitle
p2177
g2070
ssg92
g2098
sg93
g70
sg94
I00
sg95
(lp2178
g2098
asbsg84
Nsg92
g2094
sg69
g2101
sbsg84
g2104
sg92
g2091
sg69
g2126
sbsg20
g2081
sg67
Vsmall
p2179
sg69
g2126
sg82
Nsg83
Nsg84
g2094
sg85
(dp2180
sg92
g2088
sg93
g70
sg94
I00
sg95
(lp2181
g2088
asbsg20
Nsg67
Vabbr
p2182
sg69
g2091
sg82
Nsg83
Nsg84
Nsg85
(dp2183
Vclass
p2184
(lp2185
Vdtend
p2186
asVrel
p2187
Vdtend
p2188
sVtitle
p2189
g2067
ssg92
g2085
sg93
g70
sg94
I00
sg95
(lp2190
g2085
asbsg84
Nsg92
g2081
sg69
g2088
sbsg84
g2091
sg92
g2077
sg69
g2126
sbsg20
g2133
sg67
Vsmall
p2191
sg69
g2126
sg82
Nsg83
Nsg84
g2081
sg85
(dp2192
Vclass
p2193
(lp2194
Vlocation
p2195
asVrel
p2196
Vlocation
p2197
ssg92
g2074
sg93
g70
sg94
I00
sg95
(lp2198
g2074
asbsg84
Nsg92
g2133
sg69
g2077
sbsa.